
AVREstacionaMicros.elf:     file format elf32-avr

Sections:
Idx Name          Size      VMA       LMA       File off  Algn
  0 .data         00000136  00800200  0000197e  00001a12  2**0
                  CONTENTS, ALLOC, LOAD, DATA
  1 .text         0000197e  00000000  00000000  00000094  2**1
                  CONTENTS, ALLOC, LOAD, READONLY, CODE
  2 .bss          00000cd0  00800336  00800336  00001b48  2**0
                  ALLOC
  3 .comment      00000030  00000000  00000000  00001b48  2**0
                  CONTENTS, READONLY
  4 .note.gnu.avr.deviceinfo 00000040  00000000  00000000  00001b78  2**2
                  CONTENTS, READONLY
  5 .debug_aranges 00000250  00000000  00000000  00001bb8  2**0
                  CONTENTS, READONLY, DEBUGGING
  6 .debug_info   00004185  00000000  00000000  00001e08  2**0
                  CONTENTS, READONLY, DEBUGGING
  7 .debug_abbrev 0000167d  00000000  00000000  00005f8d  2**0
                  CONTENTS, READONLY, DEBUGGING
  8 .debug_line   000016ff  00000000  00000000  0000760a  2**0
                  CONTENTS, READONLY, DEBUGGING
  9 .debug_frame  00000694  00000000  00000000  00008d0c  2**2
                  CONTENTS, READONLY, DEBUGGING
 10 .debug_str    00001016  00000000  00000000  000093a0  2**0
                  CONTENTS, READONLY, DEBUGGING
 11 .debug_loc    00002110  00000000  00000000  0000a3b6  2**0
                  CONTENTS, READONLY, DEBUGGING
 12 .debug_ranges 00000258  00000000  00000000  0000c4c6  2**0
                  CONTENTS, READONLY, DEBUGGING

Disassembly of section .text:

00000000 <__vectors>:
       0:	8d c0       	rjmp	.+282    	; 0x11c <__ctors_end>
       2:	00 00       	nop
       4:	bb c0       	rjmp	.+374    	; 0x17c <__bad_interrupt>
       6:	00 00       	nop
       8:	b9 c0       	rjmp	.+370    	; 0x17c <__bad_interrupt>
       a:	00 00       	nop
       c:	b7 c0       	rjmp	.+366    	; 0x17c <__bad_interrupt>
       e:	00 00       	nop
      10:	b5 c0       	rjmp	.+362    	; 0x17c <__bad_interrupt>
      12:	00 00       	nop
      14:	b3 c0       	rjmp	.+358    	; 0x17c <__bad_interrupt>
      16:	00 00       	nop
      18:	b1 c0       	rjmp	.+354    	; 0x17c <__bad_interrupt>
      1a:	00 00       	nop
      1c:	af c0       	rjmp	.+350    	; 0x17c <__bad_interrupt>
      1e:	00 00       	nop
      20:	ad c0       	rjmp	.+346    	; 0x17c <__bad_interrupt>
      22:	00 00       	nop
      24:	ab c0       	rjmp	.+342    	; 0x17c <__bad_interrupt>
      26:	00 00       	nop
      28:	a9 c0       	rjmp	.+338    	; 0x17c <__bad_interrupt>
      2a:	00 00       	nop
      2c:	a7 c0       	rjmp	.+334    	; 0x17c <__bad_interrupt>
      2e:	00 00       	nop
      30:	a5 c0       	rjmp	.+330    	; 0x17c <__bad_interrupt>
      32:	00 00       	nop
      34:	a3 c0       	rjmp	.+326    	; 0x17c <__bad_interrupt>
      36:	00 00       	nop
      38:	a1 c0       	rjmp	.+322    	; 0x17c <__bad_interrupt>
      3a:	00 00       	nop
      3c:	9f c0       	rjmp	.+318    	; 0x17c <__bad_interrupt>
      3e:	00 00       	nop
      40:	9d c0       	rjmp	.+314    	; 0x17c <__bad_interrupt>
      42:	00 00       	nop
      44:	9b c0       	rjmp	.+310    	; 0x17c <__bad_interrupt>
      46:	00 00       	nop
      48:	99 c0       	rjmp	.+306    	; 0x17c <__bad_interrupt>
      4a:	00 00       	nop
      4c:	97 c0       	rjmp	.+302    	; 0x17c <__bad_interrupt>
      4e:	00 00       	nop
      50:	4e c3       	rjmp	.+1692   	; 0x6ee <__vector_20>
      52:	00 00       	nop
      54:	93 c0       	rjmp	.+294    	; 0x17c <__bad_interrupt>
      56:	00 00       	nop
      58:	91 c0       	rjmp	.+290    	; 0x17c <__bad_interrupt>
      5a:	00 00       	nop
      5c:	8f c0       	rjmp	.+286    	; 0x17c <__bad_interrupt>
      5e:	00 00       	nop
      60:	8d c0       	rjmp	.+282    	; 0x17c <__bad_interrupt>
      62:	00 00       	nop
      64:	0c 94 4f 0b 	jmp	0x169e	; 0x169e <__vector_25>
      68:	0c 94 25 0b 	jmp	0x164a	; 0x164a <__vector_26>
      6c:	87 c0       	rjmp	.+270    	; 0x17c <__bad_interrupt>
      6e:	00 00       	nop
      70:	85 c0       	rjmp	.+266    	; 0x17c <__bad_interrupt>
      72:	00 00       	nop
      74:	83 c0       	rjmp	.+262    	; 0x17c <__bad_interrupt>
      76:	00 00       	nop
      78:	81 c0       	rjmp	.+258    	; 0x17c <__bad_interrupt>
      7a:	00 00       	nop
      7c:	7f c0       	rjmp	.+254    	; 0x17c <__bad_interrupt>
      7e:	00 00       	nop
      80:	7d c0       	rjmp	.+250    	; 0x17c <__bad_interrupt>
      82:	00 00       	nop
      84:	7b c0       	rjmp	.+246    	; 0x17c <__bad_interrupt>
      86:	00 00       	nop
      88:	79 c0       	rjmp	.+242    	; 0x17c <__bad_interrupt>
      8a:	00 00       	nop
      8c:	77 c0       	rjmp	.+238    	; 0x17c <__bad_interrupt>
      8e:	00 00       	nop
      90:	75 c0       	rjmp	.+234    	; 0x17c <__bad_interrupt>
      92:	00 00       	nop
      94:	73 c0       	rjmp	.+230    	; 0x17c <__bad_interrupt>
      96:	00 00       	nop
      98:	71 c0       	rjmp	.+226    	; 0x17c <__bad_interrupt>
      9a:	00 00       	nop
      9c:	6f c0       	rjmp	.+222    	; 0x17c <__bad_interrupt>
      9e:	00 00       	nop
      a0:	6d c0       	rjmp	.+218    	; 0x17c <__bad_interrupt>
      a2:	00 00       	nop
      a4:	6b c0       	rjmp	.+214    	; 0x17c <__bad_interrupt>
      a6:	00 00       	nop
      a8:	69 c0       	rjmp	.+210    	; 0x17c <__bad_interrupt>
      aa:	00 00       	nop
      ac:	67 c0       	rjmp	.+206    	; 0x17c <__bad_interrupt>
      ae:	00 00       	nop
      b0:	65 c0       	rjmp	.+202    	; 0x17c <__bad_interrupt>
      b2:	00 00       	nop
      b4:	63 c0       	rjmp	.+198    	; 0x17c <__bad_interrupt>
      b6:	00 00       	nop
      b8:	61 c0       	rjmp	.+194    	; 0x17c <__bad_interrupt>
      ba:	00 00       	nop
      bc:	5f c0       	rjmp	.+190    	; 0x17c <__bad_interrupt>
      be:	00 00       	nop
      c0:	5d c0       	rjmp	.+186    	; 0x17c <__bad_interrupt>
      c2:	00 00       	nop
      c4:	5b c0       	rjmp	.+182    	; 0x17c <__bad_interrupt>
      c6:	00 00       	nop
      c8:	59 c0       	rjmp	.+178    	; 0x17c <__bad_interrupt>
      ca:	00 00       	nop
      cc:	57 c0       	rjmp	.+174    	; 0x17c <__bad_interrupt>
      ce:	00 00       	nop
      d0:	55 c0       	rjmp	.+170    	; 0x17c <__bad_interrupt>
      d2:	00 00       	nop
      d4:	53 c0       	rjmp	.+166    	; 0x17c <__bad_interrupt>
      d6:	00 00       	nop
      d8:	51 c0       	rjmp	.+162    	; 0x17c <__bad_interrupt>
      da:	00 00       	nop
      dc:	4f c0       	rjmp	.+158    	; 0x17c <__bad_interrupt>
      de:	00 00       	nop
      e0:	4d c0       	rjmp	.+154    	; 0x17c <__bad_interrupt>
      e2:	00 00       	nop
      e4:	e2 04       	cpc	r14, r2
      e6:	5d 06       	cpc	r5, r29
      e8:	e9 04       	cpc	r14, r9
      ea:	b6 06       	cpc	r11, r22
      ec:	b6 06       	cpc	r11, r22
      ee:	b6 06       	cpc	r11, r22
      f0:	f0 04       	cpc	r15, r0
      f2:	b6 06       	cpc	r11, r22
      f4:	b6 06       	cpc	r11, r22
      f6:	b6 06       	cpc	r11, r22
      f8:	b6 06       	cpc	r11, r22
      fa:	71 06       	cpc	r7, r17
      fc:	01 05       	cpc	r16, r1
      fe:	b6 06       	cpc	r11, r22
     100:	67 06       	cpc	r6, r23
     102:	b6 06       	cpc	r11, r22
     104:	b6 06       	cpc	r11, r22
     106:	b3 05       	cpc	r27, r3
     108:	53 07       	cpc	r21, r19
     10a:	62 08       	sbc	r6, r2
     10c:	36 09       	sbc	r19, r6
     10e:	07 09       	sbc	r16, r7
     110:	b3 09       	sbc	r27, r3
     112:	21 0a       	sbc	r2, r17
     114:	2c 0a       	sbc	r2, r28
     116:	2f 0a       	sbc	r2, r31

00000118 <__ctors_start>:
     118:	b1 03       	fmuls	r19, r17
     11a:	61 0a       	sbc	r6, r17

0000011c <__ctors_end>:
     11c:	11 24       	eor	r1, r1
     11e:	1f be       	out	0x3f, r1	; 63
     120:	cf ef       	ldi	r28, 0xFF	; 255
     122:	d1 e2       	ldi	r29, 0x21	; 33
     124:	de bf       	out	0x3e, r29	; 62
     126:	cd bf       	out	0x3d, r28	; 61
     128:	00 e0       	ldi	r16, 0x00	; 0
     12a:	0c bf       	out	0x3c, r16	; 60

0000012c <__do_copy_data>:
     12c:	13 e0       	ldi	r17, 0x03	; 3
     12e:	a0 e0       	ldi	r26, 0x00	; 0
     130:	b2 e0       	ldi	r27, 0x02	; 2
     132:	ee e7       	ldi	r30, 0x7E	; 126
     134:	f9 e1       	ldi	r31, 0x19	; 25
     136:	00 e0       	ldi	r16, 0x00	; 0
     138:	0b bf       	out	0x3b, r16	; 59
     13a:	02 c0       	rjmp	.+4      	; 0x140 <__do_copy_data+0x14>
     13c:	07 90       	elpm	r0, Z+
     13e:	0d 92       	st	X+, r0
     140:	a6 33       	cpi	r26, 0x36	; 54
     142:	b1 07       	cpc	r27, r17
     144:	d9 f7       	brne	.-10     	; 0x13c <__do_copy_data+0x10>

00000146 <__do_clear_bss>:
     146:	20 e1       	ldi	r18, 0x10	; 16
     148:	a6 e3       	ldi	r26, 0x36	; 54
     14a:	b3 e0       	ldi	r27, 0x03	; 3
     14c:	01 c0       	rjmp	.+2      	; 0x150 <.do_clear_bss_start>

0000014e <.do_clear_bss_loop>:
     14e:	1d 92       	st	X+, r1

00000150 <.do_clear_bss_start>:
     150:	a6 30       	cpi	r26, 0x06	; 6
     152:	b2 07       	cpc	r27, r18
     154:	e1 f7       	brne	.-8      	; 0x14e <.do_clear_bss_loop>

00000156 <__do_global_ctors>:
     156:	10 e0       	ldi	r17, 0x00	; 0
     158:	ce e8       	ldi	r28, 0x8E	; 142
     15a:	d0 e0       	ldi	r29, 0x00	; 0
     15c:	00 e0       	ldi	r16, 0x00	; 0
     15e:	06 c0       	rjmp	.+12     	; 0x16c <__do_global_ctors+0x16>
     160:	21 97       	sbiw	r28, 0x01	; 1
     162:	01 09       	sbc	r16, r1
     164:	80 2f       	mov	r24, r16
     166:	fe 01       	movw	r30, r28
     168:	0e 94 65 0c 	call	0x18ca	; 0x18ca <__tablejump2__>
     16c:	cc 38       	cpi	r28, 0x8C	; 140
     16e:	d1 07       	cpc	r29, r17
     170:	80 e0       	ldi	r24, 0x00	; 0
     172:	08 07       	cpc	r16, r24
     174:	a9 f7       	brne	.-22     	; 0x160 <__do_global_ctors+0xa>
     176:	9c d3       	rcall	.+1848   	; 0x8b0 <main>
     178:	0c 94 bd 0c 	jmp	0x197a	; 0x197a <_exit>

0000017c <__bad_interrupt>:
     17c:	41 cf       	rjmp	.-382    	; 0x0 <__vectors>

0000017e <_Z8atrasomsj>:
#include <avr/io.h>
void atrasoms(unsigned int ms){
	/*	void atrasoms(int ms);
		aceita entrada de até 65535ms ou 65,535 segundos				
	*/
	TCNT0 = 0;
     17e:	16 bc       	out	0x26, r1	; 38
	TCCR0B = 0x03;	//00000011 CTC mode, prescaller x64 //já inicia contagem
     180:	23 e0       	ldi	r18, 0x03	; 3
     182:	25 bd       	out	0x25, r18	; 37
	TCCR0A = 0x02;	//00000010 CTC mode
     184:	22 e0       	ldi	r18, 0x02	; 2
     186:	24 bd       	out	0x24, r18	; 36
	OCR0A = 249;	//250 contagens * 64 prescaller / 16MHz = 1ms
     188:	29 ef       	ldi	r18, 0xF9	; 249
     18a:	27 bd       	out	0x27, r18	; 39

	while(ms > 0){
     18c:	00 97       	sbiw	r24, 0x00	; 0
     18e:	29 f0       	breq	.+10     	; 0x19a <_Z8atrasomsj+0x1c>
		while(!(TIFR0 & (1<<1))); //congela timer enquanto
     190:	a9 9b       	sbis	0x15, 1	; 21
     192:	fe cf       	rjmp	.-4      	; 0x190 <_Z8atrasomsj+0x12>
		TIFR0 |= 1<<1; //Limpa flag comparador A setando pra 1.
     194:	a9 9a       	sbi	0x15, 1	; 21
		ms--;
     196:	01 97       	sbiw	r24, 0x01	; 1
	TCNT0 = 0;
	TCCR0B = 0x03;	//00000011 CTC mode, prescaller x64 //já inicia contagem
	TCCR0A = 0x02;	//00000010 CTC mode
	OCR0A = 249;	//250 contagens * 64 prescaller / 16MHz = 1ms

	while(ms > 0){
     198:	d9 f7       	brne	.-10     	; 0x190 <_Z8atrasomsj+0x12>
     19a:	08 95       	ret

0000019c <_Z8atrasousj>:
void atrasous(unsigned int us){ //aproximado 0,2us a mais
	/*	void atrasous(int us);
		aceita entrada de até 65535us ou 65,535ms
	*/
	//16 contagens / 16MHz = 1 us
	TCNT0 = 0;
     19c:	16 bc       	out	0x26, r1	; 38
	TCCR0B = 0x01; //sem prescaller CTC //já inicia timer
     19e:	21 e0       	ldi	r18, 0x01	; 1
     1a0:	25 bd       	out	0x25, r18	; 37
	TCCR0A = 0x02; //CTC
     1a2:	22 e0       	ldi	r18, 0x02	; 2
     1a4:	24 bd       	out	0x24, r18	; 36
	OCR0A = 15;
     1a6:	2f e0       	ldi	r18, 0x0F	; 15
     1a8:	27 bd       	out	0x27, r18	; 39

	while(us > 0){
     1aa:	00 97       	sbiw	r24, 0x00	; 0
     1ac:	29 f0       	breq	.+10     	; 0x1b8 <_Z8atrasousj+0x1c>
		while(!(TIFR0 & (1<<1)));	
     1ae:	a9 9b       	sbis	0x15, 1	; 21
     1b0:	fe cf       	rjmp	.-4      	; 0x1ae <_Z8atrasousj+0x12>
		TIFR0 |= 1<<1; //Limpa flag comparador A setando pra 1.
     1b2:	a9 9a       	sbi	0x15, 1	; 21
		us--;
     1b4:	01 97       	sbiw	r24, 0x01	; 1
	TCNT0 = 0;
	TCCR0B = 0x01; //sem prescaller CTC //já inicia timer
	TCCR0A = 0x02; //CTC
	OCR0A = 15;

	while(us > 0){
     1b6:	d9 f7       	brne	.-10     	; 0x1ae <_Z8atrasousj+0x12>
     1b8:	08 95       	ret

000001ba <_ZN8DataHoraC1Ecccc>:
	if(retorno.dia<0){
		retorno.dia +=30;
		retorno.mes--;
	}
	return retorno;
}
     1ba:	0f 93       	push	r16
     1bc:	fc 01       	movw	r30, r24
     1be:	60 83       	st	Z, r22
     1c0:	41 83       	std	Z+1, r20	; 0x01
     1c2:	22 83       	std	Z+2, r18	; 0x02
     1c4:	03 83       	std	Z+3, r16	; 0x03
     1c6:	14 82       	std	Z+4, r1	; 0x04
     1c8:	0f 91       	pop	r16
     1ca:	08 95       	ret

000001cc <_ZN8DataHora11setByVectorEPc>:
     1cc:	fc 01       	movw	r30, r24
     1ce:	db 01       	movw	r26, r22
     1d0:	8c 91       	ld	r24, X
     1d2:	80 83       	st	Z, r24
     1d4:	11 96       	adiw	r26, 0x01	; 1
     1d6:	8c 91       	ld	r24, X
     1d8:	11 97       	sbiw	r26, 0x01	; 1
     1da:	81 83       	std	Z+1, r24	; 0x01
     1dc:	12 96       	adiw	r26, 0x02	; 2
     1de:	8c 91       	ld	r24, X
     1e0:	12 97       	sbiw	r26, 0x02	; 2
     1e2:	82 83       	std	Z+2, r24	; 0x02
     1e4:	13 96       	adiw	r26, 0x03	; 3
     1e6:	8c 91       	ld	r24, X
     1e8:	83 83       	std	Z+3, r24	; 0x03
     1ea:	08 95       	ret

000001ec <_ZN8DataHora13setByDataHoraES_>:
     1ec:	cf 93       	push	r28
     1ee:	df 93       	push	r29
     1f0:	00 d0       	rcall	.+0      	; 0x1f2 <_ZN8DataHora13setByDataHoraES_+0x6>
     1f2:	1f 92       	push	r1
     1f4:	1f 92       	push	r1
     1f6:	cd b7       	in	r28, 0x3d	; 61
     1f8:	de b7       	in	r29, 0x3e	; 62
     1fa:	fc 01       	movw	r30, r24
     1fc:	20 83       	st	Z, r18
     1fe:	31 83       	std	Z+1, r19	; 0x01
     200:	42 83       	std	Z+2, r20	; 0x02
     202:	53 83       	std	Z+3, r21	; 0x03
     204:	64 83       	std	Z+4, r22	; 0x04
     206:	0f 90       	pop	r0
     208:	0f 90       	pop	r0
     20a:	0f 90       	pop	r0
     20c:	0f 90       	pop	r0
     20e:	0f 90       	pop	r0
     210:	df 91       	pop	r29
     212:	cf 91       	pop	r28
     214:	08 95       	ret

00000216 <_ZN8DataHora7diffMinES_>:
int DataHora::diffMin(DataHora comp){
     216:	0f 93       	push	r16
     218:	1f 93       	push	r17
     21a:	cf 93       	push	r28
     21c:	df 93       	push	r29
     21e:	00 d0       	rcall	.+0      	; 0x220 <_ZN8DataHora7diffMinES_+0xa>
     220:	1f 92       	push	r1
     222:	1f 92       	push	r1
     224:	cd b7       	in	r28, 0x3d	; 61
     226:	de b7       	in	r29, 0x3e	; 62
	//int minutosTotal = (comp.dia - this->dia)*60*24; //Dias
	//minutosTotal += (comp.mes - this->mes)*24*60*30; //Meses de 30 dias
	int minutosTotal = (comp.hora - this->hora)*60; //Horas
     228:	24 2f       	mov	r18, r20
     22a:	30 e0       	ldi	r19, 0x00	; 0
     22c:	fc 01       	movw	r30, r24
     22e:	42 81       	ldd	r20, Z+2	; 0x02
     230:	24 1b       	sub	r18, r20
     232:	31 09       	sbc	r19, r1
     234:	4c e3       	ldi	r20, 0x3C	; 60
     236:	42 9f       	mul	r20, r18
     238:	80 01       	movw	r16, r0
     23a:	43 9f       	mul	r20, r19
     23c:	10 0d       	add	r17, r0
     23e:	11 24       	eor	r1, r1
	minutosTotal += (comp.min - this->min); //Minutos
     240:	25 2f       	mov	r18, r21
     242:	30 e0       	ldi	r19, 0x00	; 0
     244:	83 81       	ldd	r24, Z+3	; 0x03
     246:	a9 01       	movw	r20, r18
     248:	48 1b       	sub	r20, r24
     24a:	51 09       	sbc	r21, r1
     24c:	04 0f       	add	r16, r20
     24e:	15 1f       	adc	r17, r21
	#if debugMin == 1
		escreveVetor("diffMin",8);
     250:	68 e0       	ldi	r22, 0x08	; 8
     252:	70 e0       	ldi	r23, 0x00	; 0
     254:	82 e0       	ldi	r24, 0x02	; 2
     256:	92 e0       	ldi	r25, 0x02	; 2
     258:	0e 94 10 0b 	call	0x1620	; 0x1620 <_Z12escreveVetorPci>
		//escreve(minutosTotal>>8);
		escreve((char)minutosTotal);
     25c:	80 2f       	mov	r24, r16
     25e:	0e 94 f4 0a 	call	0x15e8	; 0x15e8 <_Z7escrevec>
		escreve('\n');
     262:	8a e0       	ldi	r24, 0x0A	; 10
     264:	0e 94 f4 0a 	call	0x15e8	; 0x15e8 <_Z7escrevec>
	#endif
	return minutosTotal;
}
     268:	c8 01       	movw	r24, r16
     26a:	0f 90       	pop	r0
     26c:	0f 90       	pop	r0
     26e:	0f 90       	pop	r0
     270:	0f 90       	pop	r0
     272:	0f 90       	pop	r0
     274:	df 91       	pop	r29
     276:	cf 91       	pop	r28
     278:	1f 91       	pop	r17
     27a:	0f 91       	pop	r16
     27c:	08 95       	ret

0000027e <_ZN8DataHora7diffSecES_>:
int DataHora::diffSec(DataHora comp){
     27e:	0f 93       	push	r16
     280:	1f 93       	push	r17
     282:	cf 93       	push	r28
     284:	df 93       	push	r29
     286:	00 d0       	rcall	.+0      	; 0x288 <_ZN8DataHora7diffSecES_+0xa>
     288:	1f 92       	push	r1
     28a:	1f 92       	push	r1
     28c:	cd b7       	in	r28, 0x3d	; 61
     28e:	de b7       	in	r29, 0x3e	; 62
     290:	fc 01       	movw	r30, r24
     292:	83 2f       	mov	r24, r19
	int segundos = (comp.dia - this->dia)*60*24*60; //Dias
     294:	30 e0       	ldi	r19, 0x00	; 0
     296:	90 81       	ld	r25, Z
     298:	29 1b       	sub	r18, r25
     29a:	31 09       	sbc	r19, r1
     29c:	a0 ea       	ldi	r26, 0xA0	; 160
     29e:	b5 e0       	ldi	r27, 0x05	; 5
     2a0:	2a 9f       	mul	r18, r26
     2a2:	80 01       	movw	r16, r0
     2a4:	2b 9f       	mul	r18, r27
     2a6:	10 0d       	add	r17, r0
     2a8:	3a 9f       	mul	r19, r26
     2aa:	10 0d       	add	r17, r0
     2ac:	11 24       	eor	r1, r1
     2ae:	7c e3       	ldi	r23, 0x3C	; 60
     2b0:	70 9f       	mul	r23, r16
     2b2:	90 01       	movw	r18, r0
     2b4:	71 9f       	mul	r23, r17
     2b6:	30 0d       	add	r19, r0
     2b8:	11 24       	eor	r1, r1
	segundos += (comp.mes - this->mes)*24*60*30*60; //Meses de 30 dias
     2ba:	90 e0       	ldi	r25, 0x00	; 0
     2bc:	11 81       	ldd	r17, Z+1	; 0x01
     2be:	81 1b       	sub	r24, r17
     2c0:	91 09       	sbc	r25, r1
     2c2:	8a 9f       	mul	r24, r26
     2c4:	80 01       	movw	r16, r0
     2c6:	8b 9f       	mul	r24, r27
     2c8:	10 0d       	add	r17, r0
     2ca:	9a 9f       	mul	r25, r26
     2cc:	10 0d       	add	r17, r0
     2ce:	11 24       	eor	r1, r1
     2d0:	a8 e0       	ldi	r26, 0x08	; 8
     2d2:	b7 e0       	ldi	r27, 0x07	; 7
     2d4:	0a 9f       	mul	r16, r26
     2d6:	c0 01       	movw	r24, r0
     2d8:	0b 9f       	mul	r16, r27
     2da:	90 0d       	add	r25, r0
     2dc:	1a 9f       	mul	r17, r26
     2de:	90 0d       	add	r25, r0
     2e0:	11 24       	eor	r1, r1
     2e2:	28 0f       	add	r18, r24
     2e4:	39 1f       	adc	r19, r25
	segundos += (comp.hora - this->hora)*60*60; //Horas
     2e6:	a4 2f       	mov	r26, r20
     2e8:	b0 e0       	ldi	r27, 0x00	; 0
     2ea:	82 81       	ldd	r24, Z+2	; 0x02
     2ec:	a8 1b       	sub	r26, r24
     2ee:	b1 09       	sbc	r27, r1
     2f0:	00 e1       	ldi	r16, 0x10	; 16
     2f2:	1e e0       	ldi	r17, 0x0E	; 14
     2f4:	a0 9f       	mul	r26, r16
     2f6:	c0 01       	movw	r24, r0
     2f8:	a1 9f       	mul	r26, r17
     2fa:	90 0d       	add	r25, r0
     2fc:	b0 9f       	mul	r27, r16
     2fe:	90 0d       	add	r25, r0
     300:	11 24       	eor	r1, r1
     302:	28 0f       	add	r18, r24
     304:	39 1f       	adc	r19, r25
	segundos += (comp.min - this->min)*60; //Minutos
     306:	45 2f       	mov	r20, r21
     308:	50 e0       	ldi	r21, 0x00	; 0
     30a:	83 81       	ldd	r24, Z+3	; 0x03
     30c:	48 1b       	sub	r20, r24
     30e:	51 09       	sbc	r21, r1
     310:	74 9f       	mul	r23, r20
     312:	c0 01       	movw	r24, r0
     314:	75 9f       	mul	r23, r21
     316:	90 0d       	add	r25, r0
     318:	11 24       	eor	r1, r1
     31a:	28 0f       	add	r18, r24
     31c:	39 1f       	adc	r19, r25
		escreve(segundos>>16);
		escreve(segundos>>8);
		escreve(segundos);
		escreve('\n');
	#endif
	return segundos;
     31e:	70 e0       	ldi	r23, 0x00	; 0
     320:	84 81       	ldd	r24, Z+4	; 0x04
     322:	ab 01       	movw	r20, r22
     324:	48 1b       	sub	r20, r24
     326:	51 09       	sbc	r21, r1
     328:	ca 01       	movw	r24, r20
}
     32a:	82 0f       	add	r24, r18
     32c:	93 1f       	adc	r25, r19
     32e:	0f 90       	pop	r0
     330:	0f 90       	pop	r0
     332:	0f 90       	pop	r0
     334:	0f 90       	pop	r0
     336:	0f 90       	pop	r0
     338:	df 91       	pop	r29
     33a:	cf 91       	pop	r28
     33c:	1f 91       	pop	r17
     33e:	0f 91       	pop	r16
     340:	08 95       	ret

00000342 <_ZN8DataHora6incSegEc>:

void DataHora::incSeg(char segundos){
     342:	fc 01       	movw	r30, r24
	this->seg += segundos;
     344:	84 81       	ldd	r24, Z+4	; 0x04
     346:	68 0f       	add	r22, r24
     348:	64 83       	std	Z+4, r22	; 0x04
	if(this->seg >= 60){
     34a:	6c 33       	cpi	r22, 0x3C	; 60
     34c:	78 f0       	brcs	.+30     	; 0x36c <_ZN8DataHora6incSegEc+0x2a>
		this->min += this->seg/60;
     34e:	89 e8       	ldi	r24, 0x89	; 137
     350:	68 9f       	mul	r22, r24
     352:	81 2d       	mov	r24, r1
     354:	11 24       	eor	r1, r1
     356:	82 95       	swap	r24
     358:	86 95       	lsr	r24
     35a:	87 70       	andi	r24, 0x07	; 7
     35c:	93 81       	ldd	r25, Z+3	; 0x03
     35e:	98 0f       	add	r25, r24
     360:	93 83       	std	Z+3, r25	; 0x03
		this->seg %= 60;
     362:	2c e3       	ldi	r18, 0x3C	; 60
     364:	82 9f       	mul	r24, r18
     366:	60 19       	sub	r22, r0
     368:	11 24       	eor	r1, r1
     36a:	64 83       	std	Z+4, r22	; 0x04
	}
	if(this->min >= 60){
     36c:	83 81       	ldd	r24, Z+3	; 0x03
     36e:	8c 33       	cpi	r24, 0x3C	; 60
     370:	78 f0       	brcs	.+30     	; 0x390 <_ZN8DataHora6incSegEc+0x4e>
		this->hora += this->min/60;
     372:	99 e8       	ldi	r25, 0x89	; 137
     374:	89 9f       	mul	r24, r25
     376:	91 2d       	mov	r25, r1
     378:	11 24       	eor	r1, r1
     37a:	92 95       	swap	r25
     37c:	96 95       	lsr	r25
     37e:	97 70       	andi	r25, 0x07	; 7
     380:	22 81       	ldd	r18, Z+2	; 0x02
     382:	29 0f       	add	r18, r25
     384:	22 83       	std	Z+2, r18	; 0x02
		this->min %= 60;
     386:	2c e3       	ldi	r18, 0x3C	; 60
     388:	92 9f       	mul	r25, r18
     38a:	80 19       	sub	r24, r0
     38c:	11 24       	eor	r1, r1
     38e:	83 83       	std	Z+3, r24	; 0x03
	}
	if(this->hora >= 24){
     390:	82 81       	ldd	r24, Z+2	; 0x02
     392:	88 31       	cpi	r24, 0x18	; 24
     394:	70 f0       	brcs	.+28     	; 0x3b2 <_ZN8DataHora6incSegEc+0x70>
		this->dia += this->hora/24;
     396:	9b ea       	ldi	r25, 0xAB	; 171
     398:	89 9f       	mul	r24, r25
     39a:	91 2d       	mov	r25, r1
     39c:	11 24       	eor	r1, r1
     39e:	92 95       	swap	r25
     3a0:	9f 70       	andi	r25, 0x0F	; 15
     3a2:	20 81       	ld	r18, Z
     3a4:	29 0f       	add	r18, r25
     3a6:	20 83       	st	Z, r18
		this->hora %= 24;
     3a8:	28 e1       	ldi	r18, 0x18	; 24
     3aa:	92 9f       	mul	r25, r18
     3ac:	80 19       	sub	r24, r0
     3ae:	11 24       	eor	r1, r1
     3b0:	82 83       	std	Z+2, r24	; 0x02
	}
	if(this->dia >= 30){
     3b2:	80 81       	ld	r24, Z
     3b4:	8e 31       	cpi	r24, 0x1E	; 30
     3b6:	70 f0       	brcs	.+28     	; 0x3d4 <_ZN8DataHora6incSegEc+0x92>
		this->mes += dia/30;
     3b8:	99 e8       	ldi	r25, 0x89	; 137
     3ba:	89 9f       	mul	r24, r25
     3bc:	91 2d       	mov	r25, r1
     3be:	11 24       	eor	r1, r1
     3c0:	92 95       	swap	r25
     3c2:	9f 70       	andi	r25, 0x0F	; 15
     3c4:	21 81       	ldd	r18, Z+1	; 0x01
     3c6:	29 0f       	add	r18, r25
     3c8:	21 83       	std	Z+1, r18	; 0x01
		this->dia %= 30;
     3ca:	2e e1       	ldi	r18, 0x1E	; 30
     3cc:	92 9f       	mul	r25, r18
     3ce:	80 19       	sub	r24, r0
     3d0:	11 24       	eor	r1, r1
     3d2:	80 83       	st	Z, r24
     3d4:	08 95       	ret

000003d6 <_ZN7VeiculoC1E8DataHora>:
	}
}

Veiculo::Veiculo(DataHora _dataEntrada){
     3d6:	cf 93       	push	r28
     3d8:	df 93       	push	r29
     3da:	00 d0       	rcall	.+0      	; 0x3dc <_ZN7VeiculoC1E8DataHora+0x6>
     3dc:	1f 92       	push	r1
     3de:	1f 92       	push	r1
     3e0:	cd b7       	in	r28, 0x3d	; 61
     3e2:	de b7       	in	r29, 0x3e	; 62
     3e4:	dc 01       	movw	r26, r24
     3e6:	29 83       	std	Y+1, r18	; 0x01
     3e8:	3a 83       	std	Y+2, r19	; 0x02
     3ea:	4b 83       	std	Y+3, r20	; 0x03
     3ec:	5c 83       	std	Y+4, r21	; 0x04
     3ee:	6d 83       	std	Y+5, r22	; 0x05
#include "serial.h"
#define debugMin 1
#define debugPagar 1
#define debugSec 0
DataHora::DataHora(char _dia, char _mes, char _hora, char _min){
		dia =_dia;
     3f0:	81 e0       	ldi	r24, 0x01	; 1
     3f2:	1d 96       	adiw	r26, 0x0d	; 13
     3f4:	8c 93       	st	X, r24
     3f6:	1d 97       	sbiw	r26, 0x0d	; 13
		mes = _mes;
     3f8:	1e 96       	adiw	r26, 0x0e	; 14
     3fa:	8c 93       	st	X, r24
     3fc:	1e 97       	sbiw	r26, 0x0e	; 14
		hora = _hora;
     3fe:	1f 96       	adiw	r26, 0x0f	; 15
     400:	1c 92       	st	X, r1
     402:	1f 97       	sbiw	r26, 0x0f	; 15
		min = _min;
     404:	50 96       	adiw	r26, 0x10	; 16
     406:	1c 92       	st	X, r1
     408:	50 97       	sbiw	r26, 0x10	; 16
		seg = 0;
     40a:	51 96       	adiw	r26, 0x11	; 17
     40c:	1c 92       	st	X, r1
     40e:	51 97       	sbiw	r26, 0x11	; 17
		this->dia %= 30;
	}
}

Veiculo::Veiculo(DataHora _dataEntrada){
	this->valorpago=0;
     410:	53 96       	adiw	r26, 0x13	; 19
     412:	1c 92       	st	X, r1
     414:	1e 92       	st	-X, r1
     416:	52 97       	sbiw	r26, 0x12	; 18
	this->estEspecial = 0;
     418:	55 96       	adiw	r26, 0x15	; 21
     41a:	1c 92       	st	X, r1
     41c:	55 97       	sbiw	r26, 0x15	; 21
	this->estEspecialAntes=0;
     41e:	56 96       	adiw	r26, 0x16	; 22
     420:	1c 92       	st	X, r1
     422:	56 97       	sbiw	r26, 0x16	; 22
	this->estado=FORA;
     424:	83 e0       	ldi	r24, 0x03	; 3
     426:	54 96       	adiw	r26, 0x14	; 20
     428:	8c 93       	st	X, r24
     42a:	54 97       	sbiw	r26, 0x14	; 20
     42c:	fd 01       	movw	r30, r26
     42e:	9d 01       	movw	r18, r26
     430:	29 5f       	subi	r18, 0xF9	; 249
     432:	3f 4f       	sbci	r19, 0xFF	; 255
	for(int i=0; i<7; i++){
		this->placa[i] = '#';
     434:	83 e2       	ldi	r24, 0x23	; 35
     436:	81 93       	st	Z+, r24
Veiculo::Veiculo(DataHora _dataEntrada){
	this->valorpago=0;
	this->estEspecial = 0;
	this->estEspecialAntes=0;
	this->estado=FORA;
	for(int i=0; i<7; i++){
     438:	e2 17       	cp	r30, r18
     43a:	f3 07       	cpc	r31, r19
     43c:	e1 f7       	brne	.-8      	; 0x436 <__LOCK_REGION_LENGTH__+0x36>
		this->placa[i] = '#';
	}
	this->placa[7] = '\0';
     43e:	17 96       	adiw	r26, 0x07	; 7
     440:	1c 92       	st	X, r1
     442:	17 97       	sbiw	r26, 0x07	; 7
	this->dataEntrada = _dataEntrada;
     444:	85 e0       	ldi	r24, 0x05	; 5
     446:	fe 01       	movw	r30, r28
     448:	31 96       	adiw	r30, 0x01	; 1
     44a:	18 96       	adiw	r26, 0x08	; 8
     44c:	01 90       	ld	r0, Z+
     44e:	0d 92       	st	X+, r0
     450:	8a 95       	dec	r24
     452:	e1 f7       	brne	.-8      	; 0x44c <__LOCK_REGION_LENGTH__+0x4c>
}
     454:	0f 90       	pop	r0
     456:	0f 90       	pop	r0
     458:	0f 90       	pop	r0
     45a:	0f 90       	pop	r0
     45c:	0f 90       	pop	r0
     45e:	df 91       	pop	r29
     460:	cf 91       	pop	r28
     462:	08 95       	ret

00000464 <_ZN7Veiculo11calculaPgtoE8DataHora>:

int Veiculo::calculaPgto(DataHora agora){//valor a pagar
     464:	ef 92       	push	r14
     466:	ff 92       	push	r15
     468:	0f 93       	push	r16
     46a:	1f 93       	push	r17
     46c:	cf 93       	push	r28
     46e:	df 93       	push	r29
     470:	00 d0       	rcall	.+0      	; 0x472 <_ZN7Veiculo11calculaPgtoE8DataHora+0xe>
     472:	1f 92       	push	r1
     474:	1f 92       	push	r1
     476:	cd b7       	in	r28, 0x3d	; 61
     478:	de b7       	in	r29, 0x3e	; 62
     47a:	7c 01       	movw	r14, r24
     47c:	29 83       	std	Y+1, r18	; 0x01
     47e:	3a 83       	std	Y+2, r19	; 0x02
     480:	4b 83       	std	Y+3, r20	; 0x03
     482:	5c 83       	std	Y+4, r21	; 0x04
     484:	6d 83       	std	Y+5, r22	; 0x05
	//se retornar 0, libera saída, caso contrário cobra pagamento
	int minutos = this->dataEntrada.diffMin(agora);
     486:	c7 01       	movw	r24, r14
     488:	08 96       	adiw	r24, 0x08	; 8
     48a:	c5 de       	rcall	.-630    	; 0x216 <_ZN8DataHora7diffMinES_>
     48c:	9c 01       	movw	r18, r24
	//int minutos = 70;
	//int tmp;
	int pagar=0;

	if(minutos<=15){		
     48e:	80 31       	cpi	r24, 0x10	; 16
     490:	91 05       	cpc	r25, r1
     492:	ec f0       	brlt	.+58     	; 0x4ce <_ZN7Veiculo11calculaPgtoE8DataHora+0x6a>
		pagar = 0;
	}else if(minutos<=60){
     494:	8d 33       	cpi	r24, 0x3D	; 61
     496:	91 05       	cpc	r25, r1
     498:	44 f4       	brge	.+16     	; 0x4aa <_ZN7Veiculo11calculaPgtoE8DataHora+0x46>
		pagar = 10-this->valorpago;
     49a:	f7 01       	movw	r30, r14
     49c:	82 89       	ldd	r24, Z+18	; 0x12
     49e:	93 89       	ldd	r25, Z+19	; 0x13
     4a0:	0a e0       	ldi	r16, 0x0A	; 10
     4a2:	10 e0       	ldi	r17, 0x00	; 0
     4a4:	08 1b       	sub	r16, r24
     4a6:	19 0b       	sbc	r17, r25
     4a8:	14 c0       	rjmp	.+40     	; 0x4d2 <_ZN7Veiculo11calculaPgtoE8DataHora+0x6e>
	}else{
		//if(minutos%30){//se n divide por 30
		//	tmp = (minutos/30+1)*30; //arredonda para cima
		//	pagar = 10+((tmp-60)/30)*4-this->valorpago;
		//}else{
			pagar = (10+((minutos-60)/30+1)*4) - this->valorpago; //0 a 29 e 30 a 59...
     4aa:	cc 97       	sbiw	r24, 0x3c	; 60
     4ac:	6e e1       	ldi	r22, 0x1E	; 30
     4ae:	70 e0       	ldi	r23, 0x00	; 0
     4b0:	0e 94 52 0c 	call	0x18a4	; 0x18a4 <__divmodhi4>
     4b4:	8b 01       	movw	r16, r22
     4b6:	00 0f       	add	r16, r16
     4b8:	11 1f       	adc	r17, r17
     4ba:	00 0f       	add	r16, r16
     4bc:	11 1f       	adc	r17, r17
     4be:	02 5f       	subi	r16, 0xF2	; 242
     4c0:	1f 4f       	sbci	r17, 0xFF	; 255
     4c2:	f7 01       	movw	r30, r14
     4c4:	82 89       	ldd	r24, Z+18	; 0x12
     4c6:	93 89       	ldd	r25, Z+19	; 0x13
     4c8:	08 1b       	sub	r16, r24
     4ca:	19 0b       	sbc	r17, r25
     4cc:	02 c0       	rjmp	.+4      	; 0x4d2 <_ZN7Veiculo11calculaPgtoE8DataHora+0x6e>
	//int minutos = 70;
	//int tmp;
	int pagar=0;

	if(minutos<=15){		
		pagar = 0;
     4ce:	00 e0       	ldi	r16, 0x00	; 0
     4d0:	10 e0       	ldi	r17, 0x00	; 0
		//}else{
			pagar = (10+((minutos-60)/30+1)*4) - this->valorpago; //0 a 29 e 30 a 59...
		//}
	}
	
	if(this->estEspecial && this->estEspecialAntes){
     4d2:	f7 01       	movw	r30, r14
     4d4:	85 89       	ldd	r24, Z+21	; 0x15
     4d6:	88 23       	and	r24, r24
     4d8:	71 f0       	breq	.+28     	; 0x4f6 <_ZN7Veiculo11calculaPgtoE8DataHora+0x92>
     4da:	86 89       	ldd	r24, Z+22	; 0x16
     4dc:	88 23       	and	r24, r24
     4de:	59 f0       	breq	.+22     	; 0x4f6 <_ZN7Veiculo11calculaPgtoE8DataHora+0x92>
		pagar += (minutos/30+1)*2;
     4e0:	c9 01       	movw	r24, r18
     4e2:	6e e1       	ldi	r22, 0x1E	; 30
     4e4:	70 e0       	ldi	r23, 0x00	; 0
     4e6:	0e 94 52 0c 	call	0x18a4	; 0x18a4 <__divmodhi4>
     4ea:	6f 5f       	subi	r22, 0xFF	; 255
     4ec:	7f 4f       	sbci	r23, 0xFF	; 255
     4ee:	66 0f       	add	r22, r22
     4f0:	77 1f       	adc	r23, r23
     4f2:	06 0f       	add	r16, r22
     4f4:	17 1f       	adc	r17, r23
	}
	
	if(this->dataPagamento.diffMin(agora)<=15)
     4f6:	29 81       	ldd	r18, Y+1	; 0x01
     4f8:	3a 81       	ldd	r19, Y+2	; 0x02
     4fa:	4b 81       	ldd	r20, Y+3	; 0x03
     4fc:	5c 81       	ldd	r21, Y+4	; 0x04
     4fe:	6d 81       	ldd	r22, Y+5	; 0x05
     500:	c7 01       	movw	r24, r14
     502:	0d 96       	adiw	r24, 0x0d	; 13
     504:	88 de       	rcall	.-752    	; 0x216 <_ZN8DataHora7diffMinES_>
     506:	40 97       	sbiw	r24, 0x10	; 16
     508:	14 f4       	brge	.+4      	; 0x50e <_ZN7Veiculo11calculaPgtoE8DataHora+0xaa>
		pagar = 0;
     50a:	00 e0       	ldi	r16, 0x00	; 0
     50c:	10 e0       	ldi	r17, 0x00	; 0
	//pagar = 10+((minutos-60)/30+1)*4;
	//pagar = (int)(10+((minutos-60)/30+1)*4);
	//pagar = (int)(this->valorpago);

	#if debugPagar == 1
		escreveVetor("calculaPgto",13);
     50e:	6d e0       	ldi	r22, 0x0D	; 13
     510:	70 e0       	ldi	r23, 0x00	; 0
     512:	8a e0       	ldi	r24, 0x0A	; 10
     514:	92 e0       	ldi	r25, 0x02	; 2
     516:	0e 94 10 0b 	call	0x1620	; 0x1620 <_Z12escreveVetorPci>
		//escreve(minutosTotal>>8);
		escreve((char)pagar);
     51a:	80 2f       	mov	r24, r16
     51c:	0e 94 f4 0a 	call	0x15e8	; 0x15e8 <_Z7escrevec>
		escreve('\n');
     520:	8a e0       	ldi	r24, 0x0A	; 10
     522:	0e 94 f4 0a 	call	0x15e8	; 0x15e8 <_Z7escrevec>
	#endif
	
	return pagar;
}
     526:	c8 01       	movw	r24, r16
     528:	0f 90       	pop	r0
     52a:	0f 90       	pop	r0
     52c:	0f 90       	pop	r0
     52e:	0f 90       	pop	r0
     530:	0f 90       	pop	r0
     532:	df 91       	pop	r29
     534:	cf 91       	pop	r28
     536:	1f 91       	pop	r17
     538:	0f 91       	pop	r16
     53a:	ff 90       	pop	r15
     53c:	ef 90       	pop	r14
     53e:	08 95       	ret

00000540 <_ZN7Veiculo5pagarEi8DataHora>:

int Veiculo::pagar(int valor, DataHora agora){
     540:	0f 93       	push	r16
     542:	1f 93       	push	r17
     544:	cf 93       	push	r28
     546:	df 93       	push	r29
     548:	00 d0       	rcall	.+0      	; 0x54a <_ZN7Veiculo5pagarEi8DataHora+0xa>
     54a:	1f 92       	push	r1
     54c:	1f 92       	push	r1
     54e:	cd b7       	in	r28, 0x3d	; 61
     550:	de b7       	in	r29, 0x3e	; 62
     552:	fc 01       	movw	r30, r24
     554:	09 83       	std	Y+1, r16	; 0x01
     556:	1a 83       	std	Y+2, r17	; 0x02
     558:	2b 83       	std	Y+3, r18	; 0x03
     55a:	3c 83       	std	Y+4, r19	; 0x04
     55c:	4d 83       	std	Y+5, r20	; 0x05
	if(valor > 0)
     55e:	16 16       	cp	r1, r22
     560:	17 06       	cpc	r1, r23
     562:	3c f4       	brge	.+14     	; 0x572 <_ZN7Veiculo5pagarEi8DataHora+0x32>
     564:	9c 81       	ldd	r25, Y+4	; 0x04
     566:	84 2f       	mov	r24, r20
	this->mes = min.mes;
	this->hora = min.hora;
	this->min = min.min;
}
void DataHora::setByDataHora(DataHora a){
	this->dia = a.dia;
     568:	05 87       	std	Z+13, r16	; 0x0d
	this->mes = a.mes;
     56a:	16 87       	std	Z+14, r17	; 0x0e
	this->hora = a.hora;
     56c:	27 87       	std	Z+15, r18	; 0x0f
	this->min = a.min;
     56e:	90 8b       	std	Z+16, r25	; 0x10
	this->seg = a.seg;
     570:	81 8b       	std	Z+17, r24	; 0x11
}

int Veiculo::pagar(int valor, DataHora agora){
	if(valor > 0)
		this->dataPagamento.setByDataHora(agora);
	this->valorpago += valor;
     572:	82 89       	ldd	r24, Z+18	; 0x12
     574:	93 89       	ldd	r25, Z+19	; 0x13
     576:	86 0f       	add	r24, r22
     578:	97 1f       	adc	r25, r23
     57a:	93 8b       	std	Z+19, r25	; 0x13
     57c:	82 8b       	std	Z+18, r24	; 0x12
	return this->valorpago;
}
     57e:	0f 90       	pop	r0
     580:	0f 90       	pop	r0
     582:	0f 90       	pop	r0
     584:	0f 90       	pop	r0
     586:	0f 90       	pop	r0
     588:	df 91       	pop	r29
     58a:	cf 91       	pop	r28
     58c:	1f 91       	pop	r17
     58e:	0f 91       	pop	r16
     590:	08 95       	ret

00000592 <_ZN7Veiculo10ehEspecialEv>:

char Veiculo::ehEspecial(){
     592:	fc 01       	movw	r30, r24
	//retorna 1 se placa começa com IDE e 0 caso contrário
	if(	this->placa[0] != 'I')
     594:	80 81       	ld	r24, Z
     596:	89 34       	cpi	r24, 0x49	; 73
     598:	49 f4       	brne	.+18     	; 0x5ac <_ZN7Veiculo10ehEspecialEv+0x1a>
		return 0;
	if( this->placa[1] != 'D')
     59a:	81 81       	ldd	r24, Z+1	; 0x01
     59c:	84 34       	cpi	r24, 0x44	; 68
     59e:	41 f4       	brne	.+16     	; 0x5b0 <_ZN7Veiculo10ehEspecialEv+0x1e>
}

char Veiculo::ehEspecial(){
	//retorna 1 se placa começa com IDE e 0 caso contrário
	if(	this->placa[0] != 'I')
		return 0;
     5a0:	81 e0       	ldi	r24, 0x01	; 1
     5a2:	92 81       	ldd	r25, Z+2	; 0x02
     5a4:	95 34       	cpi	r25, 0x45	; 69
     5a6:	29 f0       	breq	.+10     	; 0x5b2 <_ZN7Veiculo10ehEspecialEv+0x20>
     5a8:	80 e0       	ldi	r24, 0x00	; 0
     5aa:	08 95       	ret
     5ac:	80 e0       	ldi	r24, 0x00	; 0
     5ae:	08 95       	ret
	if( this->placa[1] != 'D')
		return 0;
     5b0:	80 e0       	ldi	r24, 0x00	; 0
	if(this->placa[2] != 'E')
		return 0;
	return 1;
}
     5b2:	08 95       	ret

000005b4 <_ZN7Veiculo12ehPlacaIgualEPc>:

char Veiculo::ehPlacaIgual(char compara[]){ 
	//retorna 1 se placa for igual ao parâmetro compara
	for(int i=0; i<7; i++){
		if(compara[i] != this->placa[i])
     5b4:	fb 01       	movw	r30, r22
     5b6:	30 81       	ld	r19, Z
     5b8:	fc 01       	movw	r30, r24
     5ba:	20 81       	ld	r18, Z
     5bc:	32 13       	cpse	r19, r18
     5be:	0f c0       	rjmp	.+30     	; 0x5de <_ZN7Veiculo12ehPlacaIgualEPc+0x2a>
     5c0:	fb 01       	movw	r30, r22
     5c2:	31 96       	adiw	r30, 0x01	; 1
     5c4:	dc 01       	movw	r26, r24
     5c6:	11 96       	adiw	r26, 0x01	; 1
     5c8:	69 5f       	subi	r22, 0xF9	; 249
     5ca:	7f 4f       	sbci	r23, 0xFF	; 255
     5cc:	91 91       	ld	r25, Z+
     5ce:	8d 91       	ld	r24, X+
     5d0:	98 13       	cpse	r25, r24
     5d2:	07 c0       	rjmp	.+14     	; 0x5e2 <_ZN7Veiculo12ehPlacaIgualEPc+0x2e>
	return 1;
}

char Veiculo::ehPlacaIgual(char compara[]){ 
	//retorna 1 se placa for igual ao parâmetro compara
	for(int i=0; i<7; i++){
     5d4:	e6 17       	cp	r30, r22
     5d6:	f7 07       	cpc	r31, r23
     5d8:	c9 f7       	brne	.-14     	; 0x5cc <_ZN7Veiculo12ehPlacaIgualEPc+0x18>
		if(compara[i] != this->placa[i])
			return 0;
	}
	return 1;
     5da:	81 e0       	ldi	r24, 0x01	; 1
     5dc:	08 95       	ret

char Veiculo::ehPlacaIgual(char compara[]){ 
	//retorna 1 se placa for igual ao parâmetro compara
	for(int i=0; i<7; i++){
		if(compara[i] != this->placa[i])
			return 0;
     5de:	80 e0       	ldi	r24, 0x00	; 0
     5e0:	08 95       	ret
     5e2:	80 e0       	ldi	r24, 0x00	; 0
	}
	return 1;
}
     5e4:	08 95       	ret

000005e6 <_ZN7Veiculo8setPlacaEPc>:

void Veiculo::setPlaca(char _placa[]){
     5e6:	cf 93       	push	r28
     5e8:	df 93       	push	r29
     5ea:	ec 01       	movw	r28, r24
     5ec:	fb 01       	movw	r30, r22
     5ee:	dc 01       	movw	r26, r24
     5f0:	9b 01       	movw	r18, r22
     5f2:	29 5f       	subi	r18, 0xF9	; 249
     5f4:	3f 4f       	sbci	r19, 0xFF	; 255
	for(int i=0; i<7; i++){
		this->placa[i] = _placa[i];
     5f6:	91 91       	ld	r25, Z+
     5f8:	9d 93       	st	X+, r25
	}
	return 1;
}

void Veiculo::setPlaca(char _placa[]){
	for(int i=0; i<7; i++){
     5fa:	e2 17       	cp	r30, r18
     5fc:	f3 07       	cpc	r31, r19
     5fe:	d9 f7       	brne	.-10     	; 0x5f6 <_ZN7Veiculo8setPlacaEPc+0x10>
		this->placa[i] = _placa[i];
	}
	placa[7]='\0';
     600:	1f 82       	std	Y+7, r1	; 0x07
     602:	df 91       	pop	r29
     604:	cf 91       	pop	r28
     606:	08 95       	ret

00000608 <_Z9porta_lcdc>:
#include <avr/io.h>
#include <string.h>
#include "atraso.h"

void porta_lcd(char data_display){ // escreve na porta de dados
	PORTC |=  (1<<6);     // E = 1
     608:	46 9a       	sbi	0x08, 6	; 8
	PORTA = data_display; //dados
     60a:	82 b9       	out	0x02, r24	; 2
	unsigned char i;
	for (i= 0; i<8; i++)
	{
		i++;
	}
	PORTC &= ~(1<<6);     // E = 0
     60c:	46 98       	cbi	0x08, 6	; 8
	atrasous(40);
     60e:	88 e2       	ldi	r24, 0x28	; 40
     610:	90 e0       	ldi	r25, 0x00	; 0
     612:	c4 cd       	rjmp	.-1144   	; 0x19c <_Z8atrasousj>
     614:	08 95       	ret

00000616 <_Z11lcd_comandoc>:
}

void lcd_comando(char data_display){
	PORTC &= ~(1<<7); // RS = 0
     616:	47 98       	cbi	0x08, 7	; 8
	porta_lcd(data_display);
     618:	f7 cf       	rjmp	.-18     	; 0x608 <_Z9porta_lcdc>
     61a:	08 95       	ret

0000061c <_Z12lcdWritecharc>:
}

void lcdWritechar(char data_display){
	PORTC |=  (1<<7); // RS = 1
     61c:	47 9a       	sbi	0x08, 7	; 8
	porta_lcd(data_display);
     61e:	f4 cf       	rjmp	.-24     	; 0x608 <_Z9porta_lcdc>
     620:	08 95       	ret

00000622 <_Z13clear_displayv>:
}

void clear_display(){
	lcd_comando(0x01);
     622:	81 e0       	ldi	r24, 0x01	; 1
     624:	f8 df       	rcall	.-16     	; 0x616 <_Z11lcd_comandoc>
	atrasous(1650);
     626:	82 e7       	ldi	r24, 0x72	; 114
     628:	96 e0       	ldi	r25, 0x06	; 6
     62a:	b8 cd       	rjmp	.-1168   	; 0x19c <_Z8atrasousj>
     62c:	08 95       	ret

0000062e <_Z10lcd_configv>:
}

void lcd_config(){
		DDRA = 0xFF;   //dados
     62e:	8f ef       	ldi	r24, 0xFF	; 255
     630:	81 b9       	out	0x01, r24	; 1
		DDRC |= (1<<6);//E
     632:	3e 9a       	sbi	0x07, 6	; 7
		DDRC |= (1<<7);//RS
     634:	3f 9a       	sbi	0x07, 7	; 7
	//atrasoms(15);      //esperar HD44780 zerar a busy flag 
	lcd_comando(0x38); //function set
     636:	88 e3       	ldi	r24, 0x38	; 56
     638:	ee df       	rcall	.-36     	; 0x616 <_Z11lcd_comandoc>
	lcd_comando(0x0E); //display control
     63a:	8e e0       	ldi	r24, 0x0E	; 14
     63c:	ec df       	rcall	.-40     	; 0x616 <_Z11lcd_comandoc>
	lcd_comando(0x06); //entry mode set
     63e:	86 e0       	ldi	r24, 0x06	; 6
     640:	ea df       	rcall	.-44     	; 0x616 <_Z11lcd_comandoc>
	clear_display();
     642:	ef cf       	rjmp	.-34     	; 0x622 <_Z13clear_displayv>
     644:	08 95       	ret

00000646 <_Z9setCursorjj>:
     646:	0f 93       	push	r16
}

void setCursor(unsigned int coluna, unsigned int linha){
     648:	1f 93       	push	r17
     64a:	cf 93       	push	r28
     64c:	df 93       	push	r29
     64e:	8c 01       	movw	r16, r24
     650:	eb 01       	movw	r28, r22
	lcd_comando(0x80); //coloca o cursor na linha 0
     652:	80 e8       	ldi	r24, 0x80	; 128
     654:	e0 df       	rcall	.-64     	; 0x616 <_Z11lcd_comandoc>
	int i = 0;
	if(linha == 1) lcd_comando(0xC0); //coloca o cursor na linha 1
     656:	21 97       	sbiw	r28, 0x01	; 1
     658:	11 f4       	brne	.+4      	; 0x65e <_Z9setCursorjj+0x18>
     65a:	80 ec       	ldi	r24, 0xC0	; 192
     65c:	dc df       	rcall	.-72     	; 0x616 <_Z11lcd_comandoc>
	while(i < coluna){      //desloca o cursor para a direita até atingir a coluna desejada
     65e:	01 15       	cp	r16, r1
     660:	11 05       	cpc	r17, r1
     662:	41 f0       	breq	.+16     	; 0x674 <_Z9setCursorjj+0x2e>
     664:	c0 e0       	ldi	r28, 0x00	; 0
		lcd_comando(0x14);
     666:	d0 e0       	ldi	r29, 0x00	; 0
     668:	84 e1       	ldi	r24, 0x14	; 20
     66a:	d5 df       	rcall	.-86     	; 0x616 <_Z11lcd_comandoc>
		i++;
     66c:	21 96       	adiw	r28, 0x01	; 1

void setCursor(unsigned int coluna, unsigned int linha){
	lcd_comando(0x80); //coloca o cursor na linha 0
	int i = 0;
	if(linha == 1) lcd_comando(0xC0); //coloca o cursor na linha 1
	while(i < coluna){      //desloca o cursor para a direita até atingir a coluna desejada
     66e:	c0 17       	cp	r28, r16
     670:	d1 07       	cpc	r29, r17
     672:	d1 f7       	brne	.-12     	; 0x668 <_Z9setCursorjj+0x22>
		lcd_comando(0x14);
		i++;
	}
}
     674:	df 91       	pop	r29
     676:	cf 91       	pop	r28
     678:	1f 91       	pop	r17
     67a:	0f 91       	pop	r16
     67c:	08 95       	ret

0000067e <_Z8lcdWritePc>:

void lcdWrite(char string1[16]){ //máximo 16 caracteres, tamanho da linha do display
     67e:	0f 93       	push	r16
     680:	1f 93       	push	r17
     682:	cf 93       	push	r28
     684:	df 93       	push	r29
     686:	ec 01       	movw	r28, r24
     688:	fc 01       	movw	r30, r24
     68a:	31 96       	adiw	r30, 0x01	; 1
	unsigned int tamanho = 0, i;
     68c:	20 e0       	ldi	r18, 0x00	; 0
     68e:	30 e0       	ldi	r19, 0x00	; 0
	do{ //mede o tamanho da string
		tamanho++;
     690:	2f 5f       	subi	r18, 0xFF	; 255
     692:	3f 4f       	sbci	r19, 0xFF	; 255
	} while(string1[tamanho] != '\0'); 
     694:	91 91       	ld	r25, Z+
     696:	91 11       	cpse	r25, r1
     698:	fb cf       	rjmp	.-10     	; 0x690 <_Z8lcdWritePc+0x12>
	for(i = 0; i< tamanho; i++) lcdWritechar(string1[i]); //print
     69a:	21 15       	cp	r18, r1
     69c:	31 05       	cpc	r19, r1
     69e:	51 f0       	breq	.+20     	; 0x6b4 <_Z8lcdWritePc+0x36>
     6a0:	8e 01       	movw	r16, r28
     6a2:	c2 0f       	add	r28, r18
     6a4:	d3 1f       	adc	r29, r19
     6a6:	f8 01       	movw	r30, r16
     6a8:	81 91       	ld	r24, Z+
     6aa:	8f 01       	movw	r16, r30
     6ac:	b7 df       	rcall	.-146    	; 0x61c <_Z12lcdWritecharc>
     6ae:	0c 17       	cp	r16, r28
     6b0:	1d 07       	cpc	r17, r29
     6b2:	c9 f7       	brne	.-14     	; 0x6a6 <_Z8lcdWritePc+0x28>
}
     6b4:	df 91       	pop	r29
     6b6:	cf 91       	pop	r28
     6b8:	1f 91       	pop	r17
     6ba:	0f 91       	pop	r16
     6bc:	08 95       	ret

000006be <_Z11lcdWritePosPccc>:

void lcdWritePos(char string1[16],char coluna , char linha){
     6be:	cf 93       	push	r28
     6c0:	df 93       	push	r29
     6c2:	ec 01       	movw	r28, r24
     6c4:	86 2f       	mov	r24, r22
	setCursor(coluna, linha);
     6c6:	64 2f       	mov	r22, r20
     6c8:	70 e0       	ldi	r23, 0x00	; 0
     6ca:	90 e0       	ldi	r25, 0x00	; 0
     6cc:	bc df       	rcall	.-136    	; 0x646 <_Z9setCursorjj>
	lcdWrite(string1);
     6ce:	ce 01       	movw	r24, r28
     6d0:	d6 df       	rcall	.-84     	; 0x67e <_Z8lcdWritePc>
}
     6d2:	df 91       	pop	r29
     6d4:	cf 91       	pop	r28
     6d6:	08 95       	ret

000006d8 <_Z15lcdWritecharPosccc>:

void lcdWritecharPos(char c, char coluna, char linha){
     6d8:	cf 93       	push	r28
     6da:	c8 2f       	mov	r28, r24
     6dc:	86 2f       	mov	r24, r22
	setCursor(coluna, linha);
     6de:	64 2f       	mov	r22, r20
     6e0:	70 e0       	ldi	r23, 0x00	; 0
     6e2:	90 e0       	ldi	r25, 0x00	; 0
     6e4:	b0 df       	rcall	.-160    	; 0x646 <_Z9setCursorjj>
	lcdWritechar(c);
     6e6:	8c 2f       	mov	r24, r28
     6e8:	99 df       	rcall	.-206    	; 0x61c <_Z12lcdWritecharc>
     6ea:	cf 91       	pop	r28
     6ec:	08 95       	ret

000006ee <__vector_20>:
char tempoMostraAndares=0;
char tempoCancela1Aberta=0;
char tempoCancela2Aberta=0;
*/

ISR(TIMER1_OVF_vect){
     6ee:	1f 92       	push	r1
     6f0:	0f 92       	push	r0
     6f2:	0f b6       	in	r0, 0x3f	; 63
     6f4:	0f 92       	push	r0
     6f6:	11 24       	eor	r1, r1
     6f8:	0b b6       	in	r0, 0x3b	; 59
     6fa:	0f 92       	push	r0
     6fc:	2f 93       	push	r18
     6fe:	3f 93       	push	r19
     700:	4f 93       	push	r20
     702:	5f 93       	push	r21
     704:	6f 93       	push	r22
     706:	7f 93       	push	r23
     708:	8f 93       	push	r24
     70a:	9f 93       	push	r25
     70c:	af 93       	push	r26
     70e:	bf 93       	push	r27
     710:	ef 93       	push	r30
     712:	ff 93       	push	r31
	TCNT1 = 3036; //1s até estourar
     714:	8c ed       	ldi	r24, 0xDC	; 220
     716:	9b e0       	ldi	r25, 0x0B	; 11
     718:	90 93 85 00 	sts	0x0085, r25	; 0x800085 <__TEXT_REGION_LENGTH__+0x7c0085>
     71c:	80 93 84 00 	sts	0x0084, r24	; 0x800084 <__TEXT_REGION_LENGTH__+0x7c0084>
	// 65536 - 16M/256 = 3036
	relogio.incSeg();
     720:	61 e0       	ldi	r22, 0x01	; 1
     722:	86 e3       	ldi	r24, 0x36	; 54
     724:	93 e0       	ldi	r25, 0x03	; 3
     726:	0d de       	rcall	.-998    	; 0x342 <_ZN8DataHora6incSegEc>

/*	tempoMostraAndares=0;
	tempoCancela1Aberta++;
	tempoCancela2Aberta++;
*/
}
     728:	ff 91       	pop	r31
     72a:	ef 91       	pop	r30
     72c:	bf 91       	pop	r27
     72e:	af 91       	pop	r26
     730:	9f 91       	pop	r25
     732:	8f 91       	pop	r24
     734:	7f 91       	pop	r23
     736:	6f 91       	pop	r22
     738:	5f 91       	pop	r21
     73a:	4f 91       	pop	r20
     73c:	3f 91       	pop	r19
     73e:	2f 91       	pop	r18
     740:	0f 90       	pop	r0
     742:	0b be       	out	0x3b, r0	; 59
     744:	0f 90       	pop	r0
     746:	0f be       	out	0x3f, r0	; 63
     748:	0f 90       	pop	r0
     74a:	1f 90       	pop	r1
     74c:	18 95       	reti

0000074e <_Z13timer1_configv>:


void timer1_config(){//chamar essa função antes do loop da main
	TIMSK1 = (1<<0); // habilita interrupção no timer 1
     74e:	81 e0       	ldi	r24, 0x01	; 1
     750:	80 93 6f 00 	sts	0x006F, r24	; 0x80006f <__TEXT_REGION_LENGTH__+0x7c006f>
	sei();           // habilita interrupções no chip
     754:	78 94       	sei
	TCCR1A = 0;
     756:	10 92 80 00 	sts	0x0080, r1	; 0x800080 <__TEXT_REGION_LENGTH__+0x7c0080>
	TCCR1B = 0x04;   //PRESCALER 256
     75a:	84 e0       	ldi	r24, 0x04	; 4
     75c:	80 93 81 00 	sts	0x0081, r24	; 0x800081 <__TEXT_REGION_LENGTH__+0x7c0081>
     760:	08 95       	ret

00000762 <_GLOBAL__sub_I_relogio>:
}
     762:	0f 93       	push	r16

#include <avr/io.h>
#include <avr/interrupt.h>
#include "classes.h"

DataHora relogio(1,1,6,0); // dia mes hora minuto
     764:	00 e0       	ldi	r16, 0x00	; 0
     766:	26 e0       	ldi	r18, 0x06	; 6
     768:	41 e0       	ldi	r20, 0x01	; 1
     76a:	61 e0       	ldi	r22, 0x01	; 1
     76c:	86 e3       	ldi	r24, 0x36	; 54
     76e:	93 e0       	ldi	r25, 0x03	; 3
     770:	24 dd       	rcall	.-1464   	; 0x1ba <_ZN8DataHoraC1Ecccc>
void timer1_config(){//chamar essa função antes do loop da main
	TIMSK1 = (1<<0); // habilita interrupção no timer 1
	sei();           // habilita interrupções no chip
	TCCR1A = 0;
	TCCR1B = 0x04;   //PRESCALER 256
}
     772:	0f 91       	pop	r16
     774:	08 95       	ret

00000776 <_Z11desbloqueiav>:
	for(int i=0; i<n; i++){
		if(le() != respostaEsperada[i]){
			erro(mensagem);
		}
	}
}
     776:	10 92 01 02 	sts	0x0201, r1	; 0x800201 <estado>
     77a:	81 e0       	ldi	r24, 0x01	; 1
     77c:	80 93 00 02 	sts	0x0200, r24	; 0x800200 <__DATA_REGION_ORIGIN__>
     780:	80 93 03 0e 	sts	0x0E03, r24	; 0x800e03 <desbloqueado>
     784:	08 95       	ret

00000786 <_Z11cancelaAbrec>:
     786:	cf 93       	push	r28
     788:	c8 2f       	mov	r28, r24
     78a:	62 e0       	ldi	r22, 0x02	; 2
     78c:	70 e0       	ldi	r23, 0x00	; 0
     78e:	86 e1       	ldi	r24, 0x16	; 22
     790:	92 e0       	ldi	r25, 0x02	; 2
     792:	46 d7       	rcall	.+3724   	; 0x1620 <_Z12escreveVetorPci>
     794:	8c 2f       	mov	r24, r28
     796:	28 d7       	rcall	.+3664   	; 0x15e8 <_Z7escrevec>
     798:	82 e0       	ldi	r24, 0x02	; 2
     79a:	90 e0       	ldi	r25, 0x00	; 0
     79c:	f0 dc       	rcall	.-1568   	; 0x17e <_Z8atrasomsj>
     79e:	cf 91       	pop	r28
     7a0:	08 95       	ret

000007a2 <_Z12cancelaFechac>:
     7a2:	cf 93       	push	r28
     7a4:	c8 2f       	mov	r28, r24
     7a6:	62 e0       	ldi	r22, 0x02	; 2
     7a8:	70 e0       	ldi	r23, 0x00	; 0
     7aa:	89 e1       	ldi	r24, 0x19	; 25
     7ac:	92 e0       	ldi	r25, 0x02	; 2
     7ae:	38 d7       	rcall	.+3696   	; 0x1620 <_Z12escreveVetorPci>
     7b0:	8c 2f       	mov	r24, r28
     7b2:	1a d7       	rcall	.+3636   	; 0x15e8 <_Z7escrevec>
     7b4:	82 e0       	ldi	r24, 0x02	; 2
     7b6:	90 e0       	ldi	r25, 0x00	; 0
     7b8:	e2 dc       	rcall	.-1596   	; 0x17e <_Z8atrasomsj>
     7ba:	cf 91       	pop	r28
     7bc:	08 95       	ret

000007be <_Z8bloqueiav>:
     7be:	81 e3       	ldi	r24, 0x31	; 49
     7c0:	f0 df       	rcall	.-32     	; 0x7a2 <_Z12cancelaFechac>
     7c2:	82 e3       	ldi	r24, 0x32	; 50
     7c4:	ee df       	rcall	.-36     	; 0x7a2 <_Z12cancelaFechac>
     7c6:	85 e0       	ldi	r24, 0x05	; 5
     7c8:	80 93 01 02 	sts	0x0201, r24	; 0x800201 <estado>
     7cc:	81 e0       	ldi	r24, 0x01	; 1
     7ce:	80 93 00 02 	sts	0x0200, r24	; 0x800200 <__DATA_REGION_ORIGIN__>
     7d2:	10 92 03 0e 	sts	0x0E03, r1	; 0x800e03 <desbloqueado>
     7d6:	08 95       	ret

000007d8 <_Z12procuraPlacaPc>:

int procuraPlaca(char placaProcurada[]){
     7d8:	ef 92       	push	r14
     7da:	ff 92       	push	r15
     7dc:	0f 93       	push	r16
     7de:	1f 93       	push	r17
     7e0:	cf 93       	push	r28
     7e2:	df 93       	push	r29
     7e4:	7c 01       	movw	r14, r24
     7e6:	0b e3       	ldi	r16, 0x3B	; 59
     7e8:	13 e0       	ldi	r17, 0x03	; 3
	for(int i=0; i<120; i++){
     7ea:	c0 e0       	ldi	r28, 0x00	; 0
     7ec:	d0 e0       	ldi	r29, 0x00	; 0
		if(carros[i].ehPlacaIgual(placaProcurada))
     7ee:	b7 01       	movw	r22, r14
     7f0:	c8 01       	movw	r24, r16
     7f2:	e0 de       	rcall	.-576    	; 0x5b4 <_ZN7Veiculo12ehPlacaIgualEPc>
     7f4:	81 11       	cpse	r24, r1
     7f6:	09 c0       	rjmp	.+18     	; 0x80a <_Z12procuraPlacaPc+0x32>
		}
	}
}

int procuraPlaca(char placaProcurada[]){
	for(int i=0; i<120; i++){
     7f8:	21 96       	adiw	r28, 0x01	; 1
     7fa:	09 5e       	subi	r16, 0xE9	; 233
     7fc:	1f 4f       	sbci	r17, 0xFF	; 255
     7fe:	c8 37       	cpi	r28, 0x78	; 120
     800:	d1 05       	cpc	r29, r1
     802:	a9 f7       	brne	.-22     	; 0x7ee <_Z12procuraPlacaPc+0x16>
		if(carros[i].ehPlacaIgual(placaProcurada))
			return i;
	}
	return -1;
     804:	8f ef       	ldi	r24, 0xFF	; 255
     806:	9f ef       	ldi	r25, 0xFF	; 255
     808:	02 c0       	rjmp	.+4      	; 0x80e <_Z12procuraPlacaPc+0x36>
     80a:	8c 2f       	mov	r24, r28
     80c:	9d 2f       	mov	r25, r29
}
     80e:	df 91       	pop	r29
     810:	cf 91       	pop	r28
     812:	1f 91       	pop	r17
     814:	0f 91       	pop	r16
     816:	ff 90       	pop	r15
     818:	ef 90       	pop	r14
     81a:	08 95       	ret

0000081c <_Z8pedeMapac>:

void pedeMapa(char c){
     81c:	cf 93       	push	r28
     81e:	c8 2f       	mov	r28, r24
	escreveVetor("EM",2);
     820:	62 e0       	ldi	r22, 0x02	; 2
     822:	70 e0       	ldi	r23, 0x00	; 0
     824:	8f e1       	ldi	r24, 0x1F	; 31
     826:	92 e0       	ldi	r25, 0x02	; 2
     828:	fb d6       	rcall	.+3574   	; 0x1620 <_Z12escreveVetorPci>
	escreve(c);
     82a:	8c 2f       	mov	r24, r28
     82c:	dd d6       	rcall	.+3514   	; 0x15e8 <_Z7escrevec>
}
     82e:	cf 91       	pop	r28
     830:	08 95       	ret

00000832 <_Z9countMapaPA5_cPcc>:

char countMapa(char mapa[3][5], char contAndar[3], char c){
     832:	cf 93       	push	r28
     834:	df 93       	push	r29
     836:	fc 01       	movw	r30, r24
	char cont = 0;
	char andar = -1;
	switch(c){
     838:	41 33       	cpi	r20, 0x31	; 49
     83a:	29 f0       	breq	.+10     	; 0x846 <_Z9countMapaPA5_cPcc+0x14>
     83c:	42 33       	cpi	r20, 0x32	; 50
     83e:	21 f1       	breq	.+72     	; 0x888 <_Z9countMapaPA5_cPcc+0x56>
     840:	40 33       	cpi	r20, 0x30	; 48
     842:	c9 f4       	brne	.+50     	; 0x876 <_Z9countMapaPA5_cPcc+0x44>
     844:	1f c0       	rjmp	.+62     	; 0x884 <_Z9countMapaPA5_cPcc+0x52>
		case '0':
			andar = 0;
			break;
		case '1':
			andar = 1;
     846:	91 e0       	ldi	r25, 0x01	; 1
     848:	20 c0       	rjmp	.+64     	; 0x88a <_Z9countMapaPA5_cPcc+0x58>
			break;
	}
	if(andar != (char)-1){
		for(int i=0; i<5; i++){
			for(int j=0; j<8; j++){
				if(mapa[andar][i] & (1<<j)){
     84a:	ed 91       	ld	r30, X+
     84c:	f0 e0       	ldi	r31, 0x00	; 0
     84e:	20 e0       	ldi	r18, 0x00	; 0
     850:	30 e0       	ldi	r19, 0x00	; 0
     852:	af 01       	movw	r20, r30
     854:	02 2e       	mov	r0, r18
     856:	02 c0       	rjmp	.+4      	; 0x85c <_Z9countMapaPA5_cPcc+0x2a>
     858:	55 95       	asr	r21
     85a:	47 95       	ror	r20
     85c:	0a 94       	dec	r0
     85e:	e2 f7       	brpl	.-8      	; 0x858 <_Z9countMapaPA5_cPcc+0x26>
     860:	40 fd       	sbrc	r20, 0
					cont++;
     862:	8f 5f       	subi	r24, 0xFF	; 255
			andar = 2;
			break;
	}
	if(andar != (char)-1){
		for(int i=0; i<5; i++){
			for(int j=0; j<8; j++){
     864:	2f 5f       	subi	r18, 0xFF	; 255
     866:	3f 4f       	sbci	r19, 0xFF	; 255
     868:	28 30       	cpi	r18, 0x08	; 8
     86a:	31 05       	cpc	r19, r1
     86c:	91 f7       	brne	.-28     	; 0x852 <_Z9countMapaPA5_cPcc+0x20>
		case '2':
			andar = 2;
			break;
	}
	if(andar != (char)-1){
		for(int i=0; i<5; i++){
     86e:	ac 17       	cp	r26, r28
     870:	bd 07       	cpc	r27, r29
     872:	59 f7       	brne	.-42     	; 0x84a <_Z9countMapaPA5_cPcc+0x18>
     874:	02 c0       	rjmp	.+4      	; 0x87a <_Z9countMapaPA5_cPcc+0x48>
	escreve(c);
}

char countMapa(char mapa[3][5], char contAndar[3], char c){
	char cont = 0;
	char andar = -1;
     876:	9f ef       	ldi	r25, 0xFF	; 255
	escreveVetor("EM",2);
	escreve(c);
}

char countMapa(char mapa[3][5], char contAndar[3], char c){
	char cont = 0;
     878:	80 e0       	ldi	r24, 0x00	; 0
					cont++;
				}
			}
		}
	}
	contAndar[andar] = cont;
     87a:	fb 01       	movw	r30, r22
     87c:	e9 0f       	add	r30, r25
     87e:	f1 1d       	adc	r31, r1
     880:	80 83       	st	Z, r24
	return cont;
     882:	13 c0       	rjmp	.+38     	; 0x8aa <_Z9countMapaPA5_cPcc+0x78>
char countMapa(char mapa[3][5], char contAndar[3], char c){
	char cont = 0;
	char andar = -1;
	switch(c){
		case '0':
			andar = 0;
     884:	90 e0       	ldi	r25, 0x00	; 0
     886:	01 c0       	rjmp	.+2      	; 0x88a <_Z9countMapaPA5_cPcc+0x58>
			break;
		case '1':
			andar = 1;
			break;
		case '2':
			andar = 2;
     888:	92 e0       	ldi	r25, 0x02	; 2
			break;
	}
	if(andar != (char)-1){
		for(int i=0; i<5; i++){
			for(int j=0; j<8; j++){
				if(mapa[andar][i] & (1<<j)){
     88a:	29 2f       	mov	r18, r25
     88c:	30 e0       	ldi	r19, 0x00	; 0
     88e:	d9 01       	movw	r26, r18
     890:	aa 0f       	add	r26, r26
     892:	bb 1f       	adc	r27, r27
     894:	aa 0f       	add	r26, r26
     896:	bb 1f       	adc	r27, r27
     898:	2a 0f       	add	r18, r26
     89a:	3b 1f       	adc	r19, r27
     89c:	df 01       	movw	r26, r30
     89e:	a2 0f       	add	r26, r18
     8a0:	b3 1f       	adc	r27, r19
     8a2:	ed 01       	movw	r28, r26
     8a4:	25 96       	adiw	r28, 0x05	; 5
     8a6:	80 e0       	ldi	r24, 0x00	; 0
     8a8:	d0 cf       	rjmp	.-96     	; 0x84a <_Z9countMapaPA5_cPcc+0x18>
			}
		}
	}
	contAndar[andar] = cont;
	return cont;
     8aa:	df 91       	pop	r29
     8ac:	cf 91       	pop	r28
     8ae:	08 95       	ret

000008b0 <main>:

Veiculo carros[120]; //máximo 120 carros no estacionamento


int main(void)
{   // saindo da entrada = entrando no estacionamento
     8b0:	cf 93       	push	r28
     8b2:	df 93       	push	r29
     8b4:	cd b7       	in	r28, 0x3d	; 61
     8b6:	de b7       	in	r29, 0x3e	; 62
     8b8:	c3 5c       	subi	r28, 0xC3	; 195
     8ba:	d1 09       	sbc	r29, r1
     8bc:	0f b6       	in	r0, 0x3f	; 63
     8be:	f8 94       	cli
     8c0:	de bf       	out	0x3e, r29	; 62
     8c2:	0f be       	out	0x3f, r0	; 63
     8c4:	cd bf       	out	0x3d, r28	; 61
	char byteLido;
	char vetor[64];	
	char tmp;
	
	int carroEntrada=-1;
	DataHora horaCarroEntrada;
     8c6:	00 e0       	ldi	r16, 0x00	; 0
     8c8:	20 e0       	ldi	r18, 0x00	; 0
     8ca:	41 e0       	ldi	r20, 0x01	; 1
     8cc:	61 e0       	ldi	r22, 0x01	; 1
     8ce:	ce 01       	movw	r24, r28
     8d0:	8f 5b       	subi	r24, 0xBF	; 191
     8d2:	9f 4f       	sbci	r25, 0xFF	; 255
     8d4:	72 dc       	rcall	.-1820   	; 0x1ba <_ZN8DataHoraC1Ecccc>
	int carroSaida=-1;
	DataHora horaCarroSaida;
     8d6:	20 e0       	ldi	r18, 0x00	; 0
     8d8:	41 e0       	ldi	r20, 0x01	; 1
     8da:	61 e0       	ldi	r22, 0x01	; 1
     8dc:	ce 01       	movw	r24, r28
     8de:	8a 5b       	subi	r24, 0xBA	; 186
     8e0:	9f 4f       	sbci	r25, 0xFF	; 255
     8e2:	6b dc       	rcall	.-1834   	; 0x1ba <_ZN8DataHoraC1Ecccc>
	DataHora horaLetreiro;
     8e4:	20 e0       	ldi	r18, 0x00	; 0
     8e6:	41 e0       	ldi	r20, 0x01	; 1
     8e8:	61 e0       	ldi	r22, 0x01	; 1
     8ea:	ce 01       	movw	r24, r28
     8ec:	85 5b       	subi	r24, 0xB5	; 181
     8ee:	9f 4f       	sbci	r25, 0xFF	; 255
     8f0:	64 dc       	rcall	.-1848   	; 0x1ba <_ZN8DataHoraC1Ecccc>
     8f2:	fe 01       	movw	r30, r28
     8f4:	e2 56       	subi	r30, 0x62	; 98
     8f6:	ff 4f       	sbci	r31, 0xFF	; 255
     8f8:	cf 01       	movw	r24, r30
     8fa:	0f 96       	adiw	r24, 0x0f	; 15
	char n;
	
	char mapa[3][5];
	for(int i=0; i<3; i++){
		for(int j=0; j<5; j++){
			mapa[i][j] = 0;
     8fc:	10 82       	st	Z, r1
     8fe:	11 82       	std	Z+1, r1	; 0x01
     900:	12 82       	std	Z+2, r1	; 0x02
     902:	13 82       	std	Z+3, r1	; 0x03
     904:	14 82       	std	Z+4, r1	; 0x04
     906:	35 96       	adiw	r30, 0x05	; 5
	char senhaRespostaNova = 0;
	
	char n;
	
	char mapa[3][5];
	for(int i=0; i<3; i++){
     908:	e8 17       	cp	r30, r24
     90a:	f9 07       	cpc	r31, r25
     90c:	b9 f7       	brne	.-18     	; 0x8fc <main+0x4c>
		for(int j=0; j<5; j++){
			mapa[i][j] = 0;
		}
	}
	char contAndar[3]={0,0,0};
     90e:	c3 55       	subi	r28, 0x53	; 83
     910:	df 4f       	sbci	r29, 0xFF	; 255
     912:	18 82       	st	Y, r1
     914:	cd 5a       	subi	r28, 0xAD	; 173
     916:	d0 40       	sbci	r29, 0x00	; 0
     918:	c2 55       	subi	r28, 0x52	; 82
     91a:	df 4f       	sbci	r29, 0xFF	; 255
     91c:	18 82       	st	Y, r1
     91e:	ce 5a       	subi	r28, 0xAE	; 174
     920:	d0 40       	sbci	r29, 0x00	; 0
     922:	c1 55       	subi	r28, 0x51	; 81
     924:	df 4f       	sbci	r29, 0xFF	; 255
     926:	18 82       	st	Y, r1
     928:	cf 5a       	subi	r28, 0xAF	; 175
     92a:	d0 40       	sbci	r29, 0x00	; 0
	char cont0antes = 0;
	
	char recontar = 7;
	
	DataHora ultMostraVagas;
     92c:	00 e0       	ldi	r16, 0x00	; 0
     92e:	20 e0       	ldi	r18, 0x00	; 0
     930:	41 e0       	ldi	r20, 0x01	; 1
     932:	61 e0       	ldi	r22, 0x01	; 1
     934:	ce 01       	movw	r24, r28
     936:	80 55       	subi	r24, 0x50	; 80
     938:	9f 4f       	sbci	r25, 0xFF	; 255
     93a:	3f dc       	rcall	.-1922   	; 0x1ba <_ZN8DataHoraC1Ecccc>
	DataHora ultEO;
     93c:	20 e0       	ldi	r18, 0x00	; 0
     93e:	41 e0       	ldi	r20, 0x01	; 1
     940:	61 e0       	ldi	r22, 0x01	; 1
     942:	ce 01       	movw	r24, r28
     944:	8b 54       	subi	r24, 0x4B	; 75
     946:	9f 4f       	sbci	r25, 0xFF	; 255
     948:	38 dc       	rcall	.-1936   	; 0x1ba <_ZN8DataHoraC1Ecccc>
	
	char tLetreiro; //tempo letreiro preços
	char indice=0; //indice letreiro preços
	char letreiro[44] = "R$10 primeira hora, R$4 meia hora adicional";
	
	DataHora tempoTMP;
     94a:	20 e0       	ldi	r18, 0x00	; 0
     94c:	41 e0       	ldi	r20, 0x01	; 1
     94e:	61 e0       	ldi	r22, 0x01	; 1
     950:	ce 01       	movw	r24, r28
     952:	86 54       	subi	r24, 0x46	; 70
     954:	9f 4f       	sbci	r25, 0xFF	; 255
	
	int valorAguardaResposta=0;
	
	DDRB |= 1<<7;
	DDRF |= 1<<0; // LED VERDE
     956:	31 dc       	rcall	.-1950   	; 0x1ba <_ZN8DataHoraC1Ecccc>
	DDRF |= 1<<1; // LED AMARELO
     958:	27 9a       	sbi	0x04, 7	; 4
	DDRF |= 1<<2; // LED VERMELHO
     95a:	80 9a       	sbi	0x10, 0	; 16

	serialSetup();
     95c:	81 9a       	sbi	0x10, 1	; 16
     95e:	82 9a       	sbi	0x10, 2	; 16
	lcd_config();
     960:	eb d5       	rcall	.+3030   	; 0x1538 <_Z11serialSetupv>
     962:	65 de       	rcall	.-822    	; 0x62e <_Z10lcd_configv>
	timer1_config();
     964:	f4 de       	rcall	.-536    	; 0x74e <_Z13timer1_configv>
     966:	0f 2e       	mov	r0, r31
		}
	}
	char contAndar[3]={0,0,0};
	char cont0antes = 0;
	
	char recontar = 7;
     968:	f7 e0       	ldi	r31, 0x07	; 7
     96a:	ef 2e       	mov	r14, r31
     96c:	f0 2d       	mov	r31, r0
     96e:	41 2c       	mov	r4, r1

	char cartaoResposta[32];
	char cartaoRepostaNova = 0;

	char senhaResposta[32];
	char senhaRespostaNova = 0;
     970:	61 2c       	mov	r6, r1


	char bloqueadoPorHorario=0;

	char cartaoResposta[32];
	char cartaoRepostaNova = 0;
     972:	f1 2c       	mov	r15, r1
	
	
	


	char bloqueadoPorHorario=0;
     974:	51 2c       	mov	r5, r1
	char novoBotao = 0;
	
	char numeroCartao[7];
	char numeroCartaoPos=0;	
	char numeroSenha[7];
	char numeroSenhaPos=0;
     976:	71 2c       	mov	r7, r1
	DataHora horaLetreiro;
	
	char novoBotao = 0;
	
	char numeroCartao[7];
	char numeroCartaoPos=0;	
     978:	cc 24       	eor	r12, r12
	char vetor[64];	
	char tmp;
	
	int carroEntrada=-1;
	DataHora horaCarroEntrada;
	int carroSaida=-1;
     97a:	ca 94       	dec	r12
     97c:	dc 2c       	mov	r13, r12
     97e:	aa 24       	eor	r10, r10
    /* Replace with your application code */
	char byteLido;
	char vetor[64];	
	char tmp;
	
	int carroEntrada=-1;
     980:	aa 94       	dec	r10
     982:	ba 2c       	mov	r11, r10
     984:	0f 2e       	mov	r0, r31
								countMapa(mapa, contAndar, '0');
								recontar &= ~(1);
								break;
							case '1':
								le();
								leVetor(mapa[1],5);
     986:	fe e9       	ldi	r31, 0x9E	; 158
     988:	2f 2e       	mov	r2, r31
     98a:	31 2c       	mov	r3, r1
     98c:	f0 2d       	mov	r31, r0
     98e:	2c 0e       	add	r2, r28
     990:	3d 1e       	adc	r3, r29
     992:	85 e0       	ldi	r24, 0x05	; 5
     994:	28 0e       	add	r2, r24

    while (1) 
    {		
	
		//PORTB ^= 1<<7;
		if(novoDado()){ //loop padrão
     996:	31 1c       	adc	r3, r1
     998:	de d5       	rcall	.+3004   	; 0x1556 <_Z8novoDadov>
     99a:	88 23       	and	r24, r24
     99c:	09 f4       	brne	.+2      	; 0x9a0 <main+0xf0>
     99e:	e6 c1       	rjmp	.+972    	; 0xd6c <main+0x4bc>
			byteLido = le();
     9a0:	e0 d5       	rcall	.+3008   	; 0x1562 <_Z2lev>
     9a2:	83 35       	cpi	r24, 0x53	; 83
			if(byteLido == 'S'){
     9a4:	09 f0       	breq	.+2      	; 0x9a8 <main+0xf8>
     9a6:	e2 c1       	rjmp	.+964    	; 0xd6c <main+0x4bc>
     9a8:	dc d5       	rcall	.+3000   	; 0x1562 <_Z2lev>
				//lcdWritePos("RECEBEU", 0,1);
				byteLido = le();
     9aa:	90 e0       	ldi	r25, 0x00	; 0
     9ac:	fc 01       	movw	r30, r24
				switch (byteLido)
     9ae:	e2 54       	subi	r30, 0x42	; 66
     9b0:	f1 09       	sbc	r31, r1
     9b2:	e2 31       	cpi	r30, 0x12	; 18
     9b4:	f1 05       	cpc	r31, r1
     9b6:	08 f0       	brcs	.+2      	; 0x9ba <main+0x10a>
     9b8:	d9 c1       	rjmp	.+946    	; 0xd6c <main+0x4bc>
     9ba:	88 27       	eor	r24, r24
     9bc:	ee 58       	subi	r30, 0x8E	; 142
     9be:	ff 4f       	sbci	r31, 0xFF	; 255
     9c0:	8f 4f       	sbci	r24, 0xFF	; 255
     9c2:	83 c7       	rjmp	.+3846   	; 0x18ca <__tablejump2__>
				{
					case 'B': //Bloqueia
						escreveVetor("EB",2);
     9c4:	62 e0       	ldi	r22, 0x02	; 2
     9c6:	70 e0       	ldi	r23, 0x00	; 0
     9c8:	82 e2       	ldi	r24, 0x22	; 34
     9ca:	92 e0       	ldi	r25, 0x02	; 2
     9cc:	29 d6       	rcall	.+3154   	; 0x1620 <_Z12escreveVetorPci>
						bloqueia();						
     9ce:	f7 de       	rcall	.-530    	; 0x7be <_Z8bloqueiav>
						break; //B
     9d0:	cd c1       	rjmp	.+922    	; 0xd6c <main+0x4bc>
					case 'D': //Desbloqueia
						escreveVetor("ED", 2);
     9d2:	62 e0       	ldi	r22, 0x02	; 2
     9d4:	70 e0       	ldi	r23, 0x00	; 0
     9d6:	85 e2       	ldi	r24, 0x25	; 37
     9d8:	92 e0       	ldi	r25, 0x02	; 2
     9da:	22 d6       	rcall	.+3140   	; 0x1620 <_Z12escreveVetorPci>
						desbloqueia();
     9dc:	cc de       	rcall	.-616    	; 0x776 <_Z11desbloqueiav>
     9de:	c6 c1       	rjmp	.+908    	; 0xd6c <main+0x4bc>
						break; //D
					case 'H': //Recebe DataHora
						leVetor(vetor, 4);
     9e0:	64 e0       	ldi	r22, 0x04	; 4
     9e2:	70 e0       	ldi	r23, 0x00	; 0
     9e4:	ce 01       	movw	r24, r28
     9e6:	01 96       	adiw	r24, 0x01	; 1
     9e8:	ea d5       	rcall	.+3028   	; 0x15be <_Z7leVetorPci>
						relogio.setByVector(vetor);
     9ea:	be 01       	movw	r22, r28
     9ec:	6f 5f       	subi	r22, 0xFF	; 255
     9ee:	7f 4f       	sbci	r23, 0xFF	; 255
     9f0:	86 e3       	ldi	r24, 0x36	; 54
     9f2:	93 e0       	ldi	r25, 0x03	; 3
     9f4:	eb db       	rcall	.-2090   	; 0x1cc <_ZN8DataHora11setByVectorEPc>
						escreveVetor("EH",2);
     9f6:	62 e0       	ldi	r22, 0x02	; 2
     9f8:	70 e0       	ldi	r23, 0x00	; 0
     9fa:	88 e2       	ldi	r24, 0x28	; 40
     9fc:	92 e0       	ldi	r25, 0x02	; 2
     9fe:	10 d6       	rcall	.+3104   	; 0x1620 <_Z12escreveVetorPci>
						break; //H
     a00:	b5 c1       	rjmp	.+874    	; 0xd6c <main+0x4bc>
					case 'N': //Novo Carro
						byteLido=le(); //1 entrada, 2 saída
     a02:	af d5       	rcall	.+2910   	; 0x1562 <_Z2lev>
     a04:	98 2e       	mov	r9, r24
						leVetor(vetor, 8); //Lê placa 7char+\0
     a06:	68 e0       	ldi	r22, 0x08	; 8
     a08:	70 e0       	ldi	r23, 0x00	; 0
     a0a:	ce 01       	movw	r24, r28
     a0c:	01 96       	adiw	r24, 0x01	; 1
     a0e:	d7 d5       	rcall	.+2990   	; 0x15be <_Z7leVetorPci>
						escreveVetor("EN", 2); //Resposta para Servidor
     a10:	62 e0       	ldi	r22, 0x02	; 2
     a12:	70 e0       	ldi	r23, 0x00	; 0
     a14:	8b e2       	ldi	r24, 0x2B	; 43
     a16:	92 e0       	ldi	r25, 0x02	; 2
     a18:	03 d6       	rcall	.+3078   	; 0x1620 <_Z12escreveVetorPci>
						lcdWritePos(vetor, 0,0);
     a1a:	40 e0       	ldi	r20, 0x00	; 0
     a1c:	60 e0       	ldi	r22, 0x00	; 0
     a1e:	ce 01       	movw	r24, r28
     a20:	01 96       	adiw	r24, 0x01	; 1
     a22:	4d de       	rcall	.-870    	; 0x6be <_Z11lcdWritePosPccc>
     a24:	ce 01       	movw	r24, r28
						posCarro = procuraPlaca(vetor);
     a26:	01 96       	adiw	r24, 0x01	; 1
     a28:	d7 de       	rcall	.-594    	; 0x7d8 <_Z12procuraPlacaPc>
     a2a:	8c 01       	movw	r16, r24
     a2c:	85 ed       	ldi	r24, 0xD5	; 213
						lcdWrite(" ");
     a2e:	92 e0       	ldi	r25, 0x02	; 2
     a30:	26 de       	rcall	.-948    	; 0x67e <_Z8lcdWritePc>
     a32:	0f 3f       	cpi	r16, 0xFF	; 255
						char pos[4];
						//lcdWritechar(posCarro/100 +0x30);
						//lcdWritechar(posCarro%100/10 +0x30);
						//lcdWritechar(posCarro%100 +0x30);
						
						if(posCarro == -1){
     a34:	9f ef       	ldi	r25, 0xFF	; 255
     a36:	19 07       	cpc	r17, r25
     a38:	81 f4       	brne	.+32     	; 0xa5a <main+0x1aa>
							posCarro = procuraPlaca("#######");
     a3a:	8e e2       	ldi	r24, 0x2E	; 46
     a3c:	92 e0       	ldi	r25, 0x02	; 2
     a3e:	cc de       	rcall	.-616    	; 0x7d8 <_Z12procuraPlacaPc>
     a40:	8c 01       	movw	r16, r24
							carros[posCarro].setPlaca(vetor);
     a42:	27 e1       	ldi	r18, 0x17	; 23
     a44:	20 9f       	mul	r18, r16
     a46:	c0 01       	movw	r24, r0
     a48:	21 9f       	mul	r18, r17
     a4a:	90 0d       	add	r25, r0
     a4c:	11 24       	eor	r1, r1
     a4e:	be 01       	movw	r22, r28
     a50:	6f 5f       	subi	r22, 0xFF	; 255
     a52:	7f 4f       	sbci	r23, 0xFF	; 255
     a54:	85 5c       	subi	r24, 0xC5	; 197
     a56:	9c 4f       	sbci	r25, 0xFC	; 252
						}
						lcdWrite(" ");
     a58:	c6 dd       	rcall	.-1140   	; 0x5e6 <_ZN7Veiculo8setPlacaEPc>
     a5a:	85 ed       	ldi	r24, 0xD5	; 213
     a5c:	92 e0       	ldi	r25, 0x02	; 2
     a5e:	0f de       	rcall	.-994    	; 0x67e <_Z8lcdWritePc>
    } else if (__radix < 2 || __radix > 36) {
	*__s = 0;
	return __s;
    } else {
	extern char *__itoa_ncheck (int, char *, unsigned char);
	return __itoa_ncheck (__val, __s, __radix);
     a60:	4a e0       	ldi	r20, 0x0A	; 10
     a62:	be 01       	movw	r22, r28
     a64:	61 54       	subi	r22, 0x41	; 65
     a66:	7f 4f       	sbci	r23, 0xFF	; 255
     a68:	c8 01       	movw	r24, r16
     a6a:	54 d7       	rcall	.+3752   	; 0x1914 <__itoa_ncheck>
     a6c:	ce 01       	movw	r24, r28
						itoa(posCarro, pos, 10);
						lcdWrite(pos);
     a6e:	81 54       	subi	r24, 0x41	; 65
     a70:	9f 4f       	sbci	r25, 0xFF	; 255
     a72:	05 de       	rcall	.-1014   	; 0x67e <_Z8lcdWritePc>
     a74:	85 ed       	ldi	r24, 0xD5	; 213
     a76:	92 e0       	ldi	r25, 0x02	; 2
						
						lcdWrite(" ");
     a78:	02 de       	rcall	.-1020   	; 0x67e <_Z8lcdWritePc>
     a7a:	88 ee       	ldi	r24, 0xE8	; 232
     a7c:	93 e0       	ldi	r25, 0x03	; 3
     a7e:	7f db       	rcall	.-2306   	; 0x17e <_Z8atrasomsj>
						//itoa(carros[posCarro].valorpago, pos, 10);
						atrasoms(1000);
     a80:	e1 e3       	ldi	r30, 0x31	; 49
     a82:	9e 16       	cp	r9, r30
     a84:	21 f0       	breq	.+8      	; 0xa8e <main+0x1de>
						
						switch(byteLido){
     a86:	f2 e3       	ldi	r31, 0x32	; 50
     a88:	9f 16       	cp	r9, r31
     a8a:	31 f1       	breq	.+76     	; 0xad8 <main+0x228>
     a8c:	6f c1       	rjmp	.+734    	; 0xd6c <main+0x4bc>
     a8e:	87 e1       	ldi	r24, 0x17	; 23
     a90:	80 9f       	mul	r24, r16
							case '1':
								carros[posCarro].estado = NAENTRADA;
     a92:	f0 01       	movw	r30, r0
     a94:	81 9f       	mul	r24, r17
     a96:	f0 0d       	add	r31, r0
     a98:	11 24       	eor	r1, r1
     a9a:	e5 5c       	subi	r30, 0xC5	; 197
     a9c:	fc 4f       	sbci	r31, 0xFC	; 252
     a9e:	14 8a       	std	Z+20, r1	; 0x14
								carroEntrada = posCarro;
								horaCarroEntrada.setByDataHora(relogio);
     aa0:	20 91 36 03 	lds	r18, 0x0336	; 0x800336 <__data_end>
     aa4:	30 91 37 03 	lds	r19, 0x0337	; 0x800337 <__data_end+0x1>
     aa8:	40 91 38 03 	lds	r20, 0x0338	; 0x800338 <__data_end+0x2>
     aac:	50 91 39 03 	lds	r21, 0x0339	; 0x800339 <__data_end+0x3>
     ab0:	60 91 3a 03 	lds	r22, 0x033A	; 0x80033a <__data_end+0x4>
     ab4:	ce 01       	movw	r24, r28
     ab6:	8f 5b       	subi	r24, 0xBF	; 191
     ab8:	9f 4f       	sbci	r25, 0xFF	; 255
     aba:	98 db       	rcall	.-2256   	; 0x1ec <_ZN8DataHora13setByDataHoraES_>
     abc:	80 91 03 0e 	lds	r24, 0x0E03	; 0x800e03 <desbloqueado>
								
								if(desbloqueado){
     ac0:	88 23       	and	r24, r24
     ac2:	21 f0       	breq	.+8      	; 0xacc <main+0x21c>
     ac4:	81 e3       	ldi	r24, 0x31	; 49
									cancelaAbre(byteLido);
     ac6:	5f de       	rcall	.-834    	; 0x786 <_Z11cancelaAbrec>
     ac8:	58 01       	movw	r10, r16
						atrasoms(1000);
						
						switch(byteLido){
							case '1':
								carros[posCarro].estado = NAENTRADA;
								carroEntrada = posCarro;
     aca:	50 c1       	rjmp	.+672    	; 0xd6c <main+0x4bc>
     acc:	aa dd       	rcall	.-1196   	; 0x622 <_Z13clear_displayv>
								horaCarroEntrada.setByDataHora(relogio);
								
								if(desbloqueado){
									cancelaAbre(byteLido);
								}else{
									clear_display();
     ace:	86 e3       	ldi	r24, 0x36	; 54
     ad0:	92 e0       	ldi	r25, 0x02	; 2
									lcdWrite("Desligado!");
     ad2:	d5 dd       	rcall	.-1110   	; 0x67e <_Z8lcdWritePc>
     ad4:	58 01       	movw	r10, r16
     ad6:	4a c1       	rjmp	.+660    	; 0xd6c <main+0x4bc>
     ad8:	87 e1       	ldi	r24, 0x17	; 23
						atrasoms(1000);
						
						switch(byteLido){
							case '1':
								carros[posCarro].estado = NAENTRADA;
								carroEntrada = posCarro;
     ada:	80 9f       	mul	r24, r16
     adc:	f0 01       	movw	r30, r0
									lcdWrite("Desligado!");
								}
								
								break;
							case '2':
								carros[posCarro].estado = NASAIDA;
     ade:	81 9f       	mul	r24, r17
     ae0:	f0 0d       	add	r31, r0
     ae2:	11 24       	eor	r1, r1
     ae4:	e5 5c       	subi	r30, 0xC5	; 197
     ae6:	fc 4f       	sbci	r31, 0xFC	; 252
     ae8:	82 e0       	ldi	r24, 0x02	; 2
     aea:	84 8b       	std	Z+20, r24	; 0x14
     aec:	20 91 36 03 	lds	r18, 0x0336	; 0x800336 <__data_end>
     af0:	30 91 37 03 	lds	r19, 0x0337	; 0x800337 <__data_end+0x1>
								carroSaida= posCarro;
								horaCarroSaida.setByDataHora(relogio);
     af4:	40 91 38 03 	lds	r20, 0x0338	; 0x800338 <__data_end+0x2>
     af8:	50 91 39 03 	lds	r21, 0x0339	; 0x800339 <__data_end+0x3>
     afc:	60 91 3a 03 	lds	r22, 0x033A	; 0x80033a <__data_end+0x4>
     b00:	ce 01       	movw	r24, r28
     b02:	8a 5b       	subi	r24, 0xBA	; 186
     b04:	9f 4f       	sbci	r25, 0xFF	; 255
     b06:	72 db       	rcall	.-2332   	; 0x1ec <_ZN8DataHora13setByDataHoraES_>
     b08:	80 91 03 0e 	lds	r24, 0x0E03	; 0x800e03 <desbloqueado>

								
								if(desbloqueado){
     b0c:	88 23       	and	r24, r24
     b0e:	29 f1       	breq	.+74     	; 0xb5a <main+0x2aa>
									if(carros[posCarro].calculaPgto(relogio) > 0){
     b10:	27 e1       	ldi	r18, 0x17	; 23
     b12:	20 9f       	mul	r18, r16
     b14:	c0 01       	movw	r24, r0
     b16:	21 9f       	mul	r18, r17
     b18:	90 0d       	add	r25, r0
     b1a:	11 24       	eor	r1, r1
     b1c:	20 91 36 03 	lds	r18, 0x0336	; 0x800336 <__data_end>
     b20:	30 91 37 03 	lds	r19, 0x0337	; 0x800337 <__data_end+0x1>
     b24:	40 91 38 03 	lds	r20, 0x0338	; 0x800338 <__data_end+0x2>
     b28:	50 91 39 03 	lds	r21, 0x0339	; 0x800339 <__data_end+0x3>
     b2c:	60 91 3a 03 	lds	r22, 0x033A	; 0x80033a <__data_end+0x4>
     b30:	85 5c       	subi	r24, 0xC5	; 197
     b32:	9c 4f       	sbci	r25, 0xFC	; 252
										clear_display();
     b34:	97 dc       	rcall	.-1746   	; 0x464 <_ZN7Veiculo11calculaPgtoE8DataHora>
     b36:	18 16       	cp	r1, r24
										lcdWrite("Realize o Pagamento");
     b38:	19 06       	cpc	r1, r25
     b3a:	5c f4       	brge	.+22     	; 0xb52 <main+0x2a2>
										estado = NUMEROCARTAO;
     b3c:	72 dd       	rcall	.-1308   	; 0x622 <_Z13clear_displayv>
     b3e:	81 e4       	ldi	r24, 0x41	; 65
     b40:	92 e0       	ldi	r25, 0x02	; 2
										telaNova = 1;
     b42:	9d dd       	rcall	.-1222   	; 0x67e <_Z8lcdWritePc>
     b44:	81 e0       	ldi	r24, 0x01	; 1
								}
								
								break;
							case '2':
								carros[posCarro].estado = NASAIDA;
								carroSaida= posCarro;
     b46:	80 93 01 02 	sts	0x0201, r24	; 0x800201 <estado>
										clear_display();
										lcdWrite("Realize o Pagamento");
										estado = NUMEROCARTAO;
										telaNova = 1;
									}else{
										cancelaAbre(byteLido);
     b4a:	80 93 00 02 	sts	0x0200, r24	; 0x800200 <__DATA_REGION_ORIGIN__>
     b4e:	68 01       	movw	r12, r16
								}
								
								break;
							case '2':
								carros[posCarro].estado = NASAIDA;
								carroSaida= posCarro;
     b50:	0d c1       	rjmp	.+538    	; 0xd6c <main+0x4bc>
     b52:	82 e3       	ldi	r24, 0x32	; 50
										telaNova = 1;
									}else{
										cancelaAbre(byteLido);
									}
								}else{
									clear_display();
     b54:	18 de       	rcall	.-976    	; 0x786 <_Z11cancelaAbrec>
									lcdWrite("Desligado!");
     b56:	68 01       	movw	r12, r16
     b58:	09 c1       	rjmp	.+530    	; 0xd6c <main+0x4bc>
     b5a:	63 dd       	rcall	.-1338   	; 0x622 <_Z13clear_displayv>
								}
								
								break;
							case '2':
								carros[posCarro].estado = NASAIDA;
								carroSaida= posCarro;
     b5c:	86 e3       	ldi	r24, 0x36	; 54
     b5e:	92 e0       	ldi	r25, 0x02	; 2
								}
								break;
						}
						break; //N
					case 'S': //Carro saindo
						byteLido = le(); //1 entrada, 2 saída
     b60:	8e dd       	rcall	.-1252   	; 0x67e <_Z8lcdWritePc>
     b62:	68 01       	movw	r12, r16
     b64:	03 c1       	rjmp	.+518    	; 0xd6c <main+0x4bc>
						leVetor(vetor,8);
     b66:	fd d4       	rcall	.+2554   	; 0x1562 <_Z2lev>
     b68:	e8 2e       	mov	r14, r24
     b6a:	68 e0       	ldi	r22, 0x08	; 8
     b6c:	70 e0       	ldi	r23, 0x00	; 0
     b6e:	ce 01       	movw	r24, r28
						escreveVetor("ES", 2);
     b70:	01 96       	adiw	r24, 0x01	; 1
     b72:	25 d5       	rcall	.+2634   	; 0x15be <_Z7leVetorPci>
     b74:	62 e0       	ldi	r22, 0x02	; 2
     b76:	70 e0       	ldi	r23, 0x00	; 0
     b78:	85 e5       	ldi	r24, 0x55	; 85
     b7a:	92 e0       	ldi	r25, 0x02	; 2
						posCarro = procuraPlaca(vetor);
     b7c:	51 d5       	rcall	.+2722   	; 0x1620 <_Z12escreveVetorPci>
     b7e:	ce 01       	movw	r24, r28
     b80:	01 96       	adiw	r24, 0x01	; 1
     b82:	2a de       	rcall	.-940    	; 0x7d8 <_Z12procuraPlacaPc>
     b84:	8c 01       	movw	r16, r24
						atrasoms(2000);
     b86:	80 ed       	ldi	r24, 0xD0	; 208
     b88:	97 e0       	ldi	r25, 0x07	; 7
     b8a:	f9 da       	rcall	.-2574   	; 0x17e <_Z8atrasomsj>
						cancelaFecha(byteLido);
     b8c:	8e 2d       	mov	r24, r14
     b8e:	09 de       	rcall	.-1006   	; 0x7a2 <_Z12cancelaFechac>
     b90:	81 e3       	ldi	r24, 0x31	; 49
						recontar = 7; //0111, os 3 andares
						switch(byteLido){
     b92:	e8 16       	cp	r14, r24
     b94:	29 f0       	breq	.+10     	; 0xba0 <main+0x2f0>
     b96:	92 e3       	ldi	r25, 0x32	; 50
     b98:	e9 16       	cp	r14, r25
     b9a:	09 f4       	brne	.+2      	; 0xb9e <main+0x2ee>
     b9c:	64 c0       	rjmp	.+200    	; 0xc66 <main+0x3b6>
     b9e:	e2 c0       	rjmp	.+452    	; 0xd64 <main+0x4b4>
     ba0:	c3 55       	subi	r28, 0x53	; 83
							case '1':
								cont0antes = contAndar[0];
     ba2:	df 4f       	sbci	r29, 0xFF	; 255
     ba4:	b8 80       	ld	r11, Y
     ba6:	cd 5a       	subi	r28, 0xAD	; 173
     ba8:	d0 40       	sbci	r29, 0x00	; 0
     baa:	80 e3       	ldi	r24, 0x30	; 48
								pedeMapa('0');
     bac:	37 de       	rcall	.-914    	; 0x81c <_Z8pedeMapac>
     bae:	84 e6       	ldi	r24, 0x64	; 100
     bb0:	90 e0       	ldi	r25, 0x00	; 0
								atrasoms(100);
     bb2:	e5 da       	rcall	.-2614   	; 0x17e <_Z8atrasomsj>
     bb4:	40 e3       	ldi	r20, 0x30	; 48
     bb6:	be 01       	movw	r22, r28
     bb8:	63 55       	subi	r22, 0x53	; 83
								countMapa(mapa, contAndar,'0');
     bba:	7f 4f       	sbci	r23, 0xFF	; 255
     bbc:	ce 01       	movw	r24, r28
     bbe:	82 56       	subi	r24, 0x62	; 98
     bc0:	9f 4f       	sbci	r25, 0xFF	; 255
     bc2:	37 de       	rcall	.-914    	; 0x832 <_Z9countMapaPA5_cPcc>
     bc4:	ee 24       	eor	r14, r14
     bc6:	e3 94       	inc	r14
     bc8:	c3 55       	subi	r28, 0x53	; 83
     bca:	df 4f       	sbci	r29, 0xFF	; 255
								if((contAndar[0] != cont0antes) & !carros[posCarro].ehEspecial()){
     bcc:	88 81       	ld	r24, Y
     bce:	cd 5a       	subi	r28, 0xAD	; 173
     bd0:	d0 40       	sbci	r29, 0x00	; 0
     bd2:	8b 11       	cpse	r24, r11
     bd4:	01 c0       	rjmp	.+2      	; 0xbd8 <main+0x328>
     bd6:	e1 2c       	mov	r14, r1
     bd8:	27 e1       	ldi	r18, 0x17	; 23
     bda:	20 9f       	mul	r18, r16
     bdc:	c0 01       	movw	r24, r0
     bde:	21 9f       	mul	r18, r17
     be0:	90 0d       	add	r25, r0
     be2:	11 24       	eor	r1, r1
     be4:	85 5c       	subi	r24, 0xC5	; 197
     be6:	9c 4f       	sbci	r25, 0xFC	; 252
     be8:	d4 dc       	rcall	.-1624   	; 0x592 <_ZN7Veiculo10ehEspecialEv>
     bea:	91 e0       	ldi	r25, 0x01	; 1
     bec:	81 11       	cpse	r24, r1
     bee:	90 e0       	ldi	r25, 0x00	; 0
     bf0:	99 23       	and	r25, r25
     bf2:	69 f0       	breq	.+26     	; 0xc0e <main+0x35e>
     bf4:	ee 20       	and	r14, r14
     bf6:	59 f0       	breq	.+22     	; 0xc0e <main+0x35e>
     bf8:	87 e1       	ldi	r24, 0x17	; 23
     bfa:	80 9f       	mul	r24, r16
     bfc:	f0 01       	movw	r30, r0
     bfe:	81 9f       	mul	r24, r17
									carros[posCarro].estEspecial=1;
     c00:	f0 0d       	add	r31, r0
     c02:	11 24       	eor	r1, r1
     c04:	e5 5c       	subi	r30, 0xC5	; 197
     c06:	fc 4f       	sbci	r31, 0xFC	; 252
     c08:	81 e0       	ldi	r24, 0x01	; 1
     c0a:	85 8b       	std	Z+21, r24	; 0x15
     c0c:	09 c0       	rjmp	.+18     	; 0xc20 <main+0x370>
     c0e:	87 e1       	ldi	r24, 0x17	; 23
     c10:	80 9f       	mul	r24, r16
     c12:	f0 01       	movw	r30, r0
     c14:	81 9f       	mul	r24, r17
								}else{
									carros[posCarro].estEspecial=0;
     c16:	f0 0d       	add	r31, r0
     c18:	11 24       	eor	r1, r1
     c1a:	e5 5c       	subi	r30, 0xC5	; 197
     c1c:	fc 4f       	sbci	r31, 0xFC	; 252
     c1e:	15 8a       	std	Z+21, r1	; 0x15
     c20:	27 e1       	ldi	r18, 0x17	; 23
     c22:	20 9f       	mul	r18, r16
     c24:	c0 01       	movw	r24, r0
     c26:	21 9f       	mul	r18, r17
								}
								carroEntrada = -1;
								carros[posCarro].estado = DENTRO;
     c28:	90 0d       	add	r25, r0
     c2a:	11 24       	eor	r1, r1
     c2c:	fc 01       	movw	r30, r24
     c2e:	e5 5c       	subi	r30, 0xC5	; 197
     c30:	fc 4f       	sbci	r31, 0xFC	; 252
     c32:	21 e0       	ldi	r18, 0x01	; 1
     c34:	24 8b       	std	Z+20, r18	; 0x14
     c36:	20 91 36 03 	lds	r18, 0x0336	; 0x800336 <__data_end>
     c3a:	30 91 37 03 	lds	r19, 0x0337	; 0x800337 <__data_end+0x1>
								carros[posCarro].dataEntrada.setByDataHora(relogio);
     c3e:	40 91 38 03 	lds	r20, 0x0338	; 0x800338 <__data_end+0x2>
     c42:	50 91 39 03 	lds	r21, 0x0339	; 0x800339 <__data_end+0x3>
     c46:	60 91 3a 03 	lds	r22, 0x033A	; 0x80033a <__data_end+0x4>
     c4a:	8d 5b       	subi	r24, 0xBD	; 189
     c4c:	9c 4f       	sbci	r25, 0xFC	; 252
     c4e:	ce da       	rcall	.-2660   	; 0x1ec <_ZN8DataHora13setByDataHoraES_>
     c50:	86 e0       	ldi	r24, 0x06	; 6
     c52:	80 93 01 02 	sts	0x0201, r24	; 0x800201 <estado>
     c56:	0f 2e       	mov	r0, r31
     c58:	f7 e0       	ldi	r31, 0x07	; 7
								estado = SAIUENTRADA;
     c5a:	ef 2e       	mov	r14, r31
     c5c:	f0 2d       	mov	r31, r0
						leVetor(vetor,8);
						escreveVetor("ES", 2);
						posCarro = procuraPlaca(vetor);
						atrasoms(2000);
						cancelaFecha(byteLido);
						recontar = 7; //0111, os 3 andares
     c5e:	aa 24       	eor	r10, r10
     c60:	aa 94       	dec	r10
     c62:	ba 2c       	mov	r11, r10
								if((contAndar[0] != cont0antes) & !carros[posCarro].ehEspecial()){
									carros[posCarro].estEspecial=1;
								}else{
									carros[posCarro].estEspecial=0;
								}
								carroEntrada = -1;
     c64:	83 c0       	rjmp	.+262    	; 0xd6c <main+0x4bc>
     c66:	87 e1       	ldi	r24, 0x17	; 23
     c68:	80 9f       	mul	r24, r16
								carros[posCarro].estado = DENTRO;
								carros[posCarro].dataEntrada.setByDataHora(relogio);
								estado = SAIUENTRADA;
								break;
							case '2':
								if(carros[posCarro].estEspecial)
     c6a:	f0 01       	movw	r30, r0
     c6c:	81 9f       	mul	r24, r17
     c6e:	f0 0d       	add	r31, r0
     c70:	11 24       	eor	r1, r1
     c72:	e5 5c       	subi	r30, 0xC5	; 197
     c74:	fc 4f       	sbci	r31, 0xFC	; 252
     c76:	85 89       	ldd	r24, Z+21	; 0x15
     c78:	88 23       	and	r24, r24
     c7a:	51 f0       	breq	.+20     	; 0xc90 <main+0x3e0>
									carros[posCarro].estEspecialAntes=1;
     c7c:	87 e1       	ldi	r24, 0x17	; 23
     c7e:	80 9f       	mul	r24, r16
     c80:	f0 01       	movw	r30, r0
     c82:	81 9f       	mul	r24, r17
     c84:	f0 0d       	add	r31, r0
     c86:	11 24       	eor	r1, r1
     c88:	e5 5c       	subi	r30, 0xC5	; 197
     c8a:	fc 4f       	sbci	r31, 0xFC	; 252
     c8c:	81 e0       	ldi	r24, 0x01	; 1
								carroSaida = -1;
								carros[posCarro].estado = FORA;
     c8e:	86 8b       	std	Z+22, r24	; 0x16
     c90:	87 e1       	ldi	r24, 0x17	; 23
     c92:	80 9f       	mul	r24, r16
     c94:	f0 01       	movw	r30, r0
     c96:	81 9f       	mul	r24, r17
     c98:	f0 0d       	add	r31, r0
     c9a:	11 24       	eor	r1, r1
     c9c:	e5 5c       	subi	r30, 0xC5	; 197
     c9e:	fc 4f       	sbci	r31, 0xFC	; 252
								estado = SAIUSAIDA;
     ca0:	83 e0       	ldi	r24, 0x03	; 3
     ca2:	84 8b       	std	Z+20, r24	; 0x14
						leVetor(vetor,8);
						escreveVetor("ES", 2);
						posCarro = procuraPlaca(vetor);
						atrasoms(2000);
						cancelaFecha(byteLido);
						recontar = 7; //0111, os 3 andares
     ca4:	87 e0       	ldi	r24, 0x07	; 7
     ca6:	80 93 01 02 	sts	0x0201, r24	; 0x800201 <estado>
								estado = SAIUENTRADA;
								break;
							case '2':
								if(carros[posCarro].estEspecial)
									carros[posCarro].estEspecialAntes=1;
								carroSaida = -1;
     caa:	0f 2e       	mov	r0, r31
     cac:	f7 e0       	ldi	r31, 0x07	; 7
								carros[posCarro].estado = FORA;
								estado = SAIUSAIDA;
								break;
     cae:	ef 2e       	mov	r14, r31
						}
						break; //S
					case 'C': //Resposta Cartao
						n = le();
     cb0:	f0 2d       	mov	r31, r0
     cb2:	cc 24       	eor	r12, r12
						leVetor(cartaoResposta, n);
     cb4:	ca 94       	dec	r12
     cb6:	dc 2c       	mov	r13, r12
     cb8:	59 c0       	rjmp	.+178    	; 0xd6c <main+0x4bc>
     cba:	53 d4       	rcall	.+2214   	; 0x1562 <_Z2lev>
     cbc:	68 2f       	mov	r22, r24
     cbe:	70 e0       	ldi	r23, 0x00	; 0
						cartaoRepostaNova = 1;
     cc0:	ce 01       	movw	r24, r28
     cc2:	82 5a       	subi	r24, 0xA2	; 162
						break;
					case 'P':
						n = le();
     cc4:	9f 4f       	sbci	r25, 0xFF	; 255
     cc6:	7b d4       	rcall	.+2294   	; 0x15be <_Z7leVetorPci>
						leVetor(senhaResposta, n);
     cc8:	66 24       	eor	r6, r6
     cca:	63 94       	inc	r6
     ccc:	4f c0       	rjmp	.+158    	; 0xd6c <main+0x4bc>
     cce:	49 d4       	rcall	.+2194   	; 0x1562 <_Z2lev>
     cd0:	68 2f       	mov	r22, r24
     cd2:	70 e0       	ldi	r23, 0x00	; 0
						senhaRespostaNova = 1;
     cd4:	ce 01       	movw	r24, r28
     cd6:	82 58       	subi	r24, 0x82	; 130
						break;
     cd8:	9f 4f       	sbci	r25, 0xFF	; 255
					case 'M':
						switch(le()){
     cda:	71 d4       	rcall	.+2274   	; 0x15be <_Z7leVetorPci>
     cdc:	44 24       	eor	r4, r4
     cde:	43 94       	inc	r4
     ce0:	45 c0       	rjmp	.+138    	; 0xd6c <main+0x4bc>
     ce2:	3f d4       	rcall	.+2174   	; 0x1562 <_Z2lev>
     ce4:	81 33       	cpi	r24, 0x31	; 49
     ce6:	c1 f0       	breq	.+48     	; 0xd18 <main+0x468>
     ce8:	82 33       	cpi	r24, 0x32	; 50
							case '0':
								le();
     cea:	39 f1       	breq	.+78     	; 0xd3a <main+0x48a>
     cec:	80 33       	cpi	r24, 0x30	; 48
								leVetor(mapa[0],5);
     cee:	09 f0       	breq	.+2      	; 0xcf2 <main+0x442>
     cf0:	3d c0       	rjmp	.+122    	; 0xd6c <main+0x4bc>
     cf2:	37 d4       	rcall	.+2158   	; 0x1562 <_Z2lev>
     cf4:	65 e0       	ldi	r22, 0x05	; 5
     cf6:	70 e0       	ldi	r23, 0x00	; 0
     cf8:	ce 01       	movw	r24, r28
     cfa:	82 56       	subi	r24, 0x62	; 98
								countMapa(mapa, contAndar, '0');
     cfc:	9f 4f       	sbci	r25, 0xFF	; 255
     cfe:	5f d4       	rcall	.+2238   	; 0x15be <_Z7leVetorPci>
     d00:	40 e3       	ldi	r20, 0x30	; 48
     d02:	be 01       	movw	r22, r28
     d04:	63 55       	subi	r22, 0x53	; 83
     d06:	7f 4f       	sbci	r23, 0xFF	; 255
     d08:	ce 01       	movw	r24, r28
     d0a:	82 56       	subi	r24, 0x62	; 98
								recontar &= ~(1);
     d0c:	9f 4f       	sbci	r25, 0xFF	; 255
     d0e:	91 dd       	rcall	.-1246   	; 0x832 <_Z9countMapaPA5_cPcc>
     d10:	ee 2d       	mov	r30, r14
								break;
     d12:	ee 7f       	andi	r30, 0xFE	; 254
							case '1':
								le();
     d14:	ee 2e       	mov	r14, r30
     d16:	2a c0       	rjmp	.+84     	; 0xd6c <main+0x4bc>
								leVetor(mapa[1],5);
     d18:	24 d4       	rcall	.+2120   	; 0x1562 <_Z2lev>
     d1a:	65 e0       	ldi	r22, 0x05	; 5
     d1c:	70 e0       	ldi	r23, 0x00	; 0
     d1e:	c1 01       	movw	r24, r2
     d20:	4e d4       	rcall	.+2204   	; 0x15be <_Z7leVetorPci>
								countMapa(mapa, contAndar, '1');
     d22:	41 e3       	ldi	r20, 0x31	; 49
     d24:	be 01       	movw	r22, r28
     d26:	63 55       	subi	r22, 0x53	; 83
     d28:	7f 4f       	sbci	r23, 0xFF	; 255
     d2a:	ce 01       	movw	r24, r28
     d2c:	82 56       	subi	r24, 0x62	; 98
     d2e:	9f 4f       	sbci	r25, 0xFF	; 255
     d30:	80 dd       	rcall	.-1280   	; 0x832 <_Z9countMapaPA5_cPcc>
								recontar &= ~(1<<1);
     d32:	fe 2d       	mov	r31, r14
     d34:	fd 7f       	andi	r31, 0xFD	; 253
     d36:	ef 2e       	mov	r14, r31
								break;	
     d38:	19 c0       	rjmp	.+50     	; 0xd6c <main+0x4bc>
							case '2':
								le();
     d3a:	13 d4       	rcall	.+2086   	; 0x1562 <_Z2lev>
     d3c:	65 e0       	ldi	r22, 0x05	; 5
								leVetor(mapa[2],5);
     d3e:	70 e0       	ldi	r23, 0x00	; 0
     d40:	8e e9       	ldi	r24, 0x9E	; 158
     d42:	90 e0       	ldi	r25, 0x00	; 0
     d44:	8c 0f       	add	r24, r28
     d46:	9d 1f       	adc	r25, r29
     d48:	0a 96       	adiw	r24, 0x0a	; 10
     d4a:	39 d4       	rcall	.+2162   	; 0x15be <_Z7leVetorPci>
     d4c:	42 e3       	ldi	r20, 0x32	; 50
     d4e:	be 01       	movw	r22, r28
								countMapa(mapa, contAndar, '2');
     d50:	63 55       	subi	r22, 0x53	; 83
     d52:	7f 4f       	sbci	r23, 0xFF	; 255
     d54:	ce 01       	movw	r24, r28
     d56:	82 56       	subi	r24, 0x62	; 98
     d58:	9f 4f       	sbci	r25, 0xFF	; 255
     d5a:	6b dd       	rcall	.-1322   	; 0x832 <_Z9countMapaPA5_cPcc>
     d5c:	8e 2d       	mov	r24, r14
     d5e:	8b 7f       	andi	r24, 0xFB	; 251
								recontar &= ~(1<<2);
     d60:	e8 2e       	mov	r14, r24
     d62:	04 c0       	rjmp	.+8      	; 0xd6c <main+0x4bc>
     d64:	0f 2e       	mov	r0, r31
								break;
     d66:	f7 e0       	ldi	r31, 0x07	; 7
						leVetor(vetor,8);
						escreveVetor("ES", 2);
						posCarro = procuraPlaca(vetor);
						atrasoms(2000);
						cancelaFecha(byteLido);
						recontar = 7; //0111, os 3 andares
     d68:	ef 2e       	mov	r14, r31
     d6a:	f0 2d       	mov	r31, r0
     d6c:	f1 10       	cpse	r15, r1
     d6e:	a3 c3       	rjmp	.+1862   	; 0x14b6 <__EEPROM_REGION_LENGTH__+0x4b6>
						
				}//switch
			}//if bytelido == 'S'
		}// if novoDado
		
		if(!bloqueadoPorHorario && relogio.hora<6){
     d70:	80 91 38 03 	lds	r24, 0x0338	; 0x800338 <__data_end+0x2>
     d74:	86 30       	cpi	r24, 0x06	; 6
     d76:	d8 f4       	brcc	.+54     	; 0xdae <main+0x4fe>
     d78:	80 91 03 0e 	lds	r24, 0x0E03	; 0x800e03 <desbloqueado>
			bloqueadoPorHorario = 1;
			if(desbloqueado || estado != BLOQUEADO)
     d7c:	81 11       	cpse	r24, r1
     d7e:	04 c0       	rjmp	.+8      	; 0xd88 <main+0x4d8>
     d80:	80 91 01 02 	lds	r24, 0x0201	; 0x800201 <estado>
     d84:	85 30       	cpi	r24, 0x05	; 5
     d86:	79 f0       	breq	.+30     	; 0xda6 <main+0x4f6>
				bloqueia();
     d88:	1a dd       	rcall	.-1484   	; 0x7be <_Z8bloqueiav>
     d8a:	ff 24       	eor	r15, r15
				}//switch
			}//if bytelido == 'S'
		}// if novoDado
		
		if(!bloqueadoPorHorario && relogio.hora<6){
			bloqueadoPorHorario = 1;
     d8c:	f3 94       	inc	r15
     d8e:	93 c3       	rjmp	.+1830   	; 0x14b6 <__EEPROM_REGION_LENGTH__+0x4b6>
     d90:	80 91 03 0e 	lds	r24, 0x0E03	; 0x800e03 <desbloqueado>
			if(desbloqueado || estado != BLOQUEADO)
				bloqueia();
		}
		if(bloqueadoPorHorario && relogio.hora>=6){
			bloqueadoPorHorario = 0;
			if(!desbloqueado || estado == BLOQUEADO)
     d94:	88 23       	and	r24, r24
     d96:	21 f0       	breq	.+8      	; 0xda0 <main+0x4f0>
     d98:	80 91 01 02 	lds	r24, 0x0201	; 0x800201 <estado>
     d9c:	85 30       	cpi	r24, 0x05	; 5
     d9e:	31 f4       	brne	.+12     	; 0xdac <main+0x4fc>
     da0:	ea dc       	rcall	.-1580   	; 0x776 <_Z11desbloqueiav>
				desbloqueia();
     da2:	f1 2c       	mov	r15, r1
     da4:	04 c0       	rjmp	.+8      	; 0xdae <main+0x4fe>
			bloqueadoPorHorario = 1;
			if(desbloqueado || estado != BLOQUEADO)
				bloqueia();
		}
		if(bloqueadoPorHorario && relogio.hora>=6){
			bloqueadoPorHorario = 0;
     da6:	ff 24       	eor	r15, r15
     da8:	f3 94       	inc	r15
				}//switch
			}//if bytelido == 'S'
		}// if novoDado
		
		if(!bloqueadoPorHorario && relogio.hora<6){
			bloqueadoPorHorario = 1;
     daa:	01 c0       	rjmp	.+2      	; 0xdae <main+0x4fe>
     dac:	f1 2c       	mov	r15, r1
     dae:	9f ef       	ldi	r25, 0xFF	; 255
			if(desbloqueado || estado != BLOQUEADO)
				bloqueia();
		}
		if(bloqueadoPorHorario && relogio.hora>=6){
			bloqueadoPorHorario = 0;
     db0:	a9 16       	cp	r10, r25
			if(!desbloqueado || estado == BLOQUEADO)
				desbloqueia();
		}
		
		
		if(carroEntrada != -1){
     db2:	b9 06       	cpc	r11, r25
     db4:	89 f1       	breq	.+98     	; 0xe18 <main+0x568>
     db6:	20 91 36 03 	lds	r18, 0x0336	; 0x800336 <__data_end>
			if(horaCarroSaida.diffSec(relogio) > (int)40){
     dba:	30 91 37 03 	lds	r19, 0x0337	; 0x800337 <__data_end+0x1>
     dbe:	40 91 38 03 	lds	r20, 0x0338	; 0x800338 <__data_end+0x2>
     dc2:	50 91 39 03 	lds	r21, 0x0339	; 0x800339 <__data_end+0x3>
     dc6:	60 91 3a 03 	lds	r22, 0x033A	; 0x80033a <__data_end+0x4>
     dca:	ce 01       	movw	r24, r28
     dcc:	8a 5b       	subi	r24, 0xBA	; 186
     dce:	9f 4f       	sbci	r25, 0xFF	; 255
     dd0:	56 da       	rcall	.-2900   	; 0x27e <_ZN8DataHora7diffSecES_>
     dd2:	89 97       	sbiw	r24, 0x29	; 41
     dd4:	44 f0       	brlt	.+16     	; 0xde6 <main+0x536>
     dd6:	80 91 3a 03 	lds	r24, 0x033A	; 0x80033a <__data_end+0x4>
				if(relogio.seg%2){
     dda:	80 ff       	sbrs	r24, 0
     ddc:	02 c0       	rjmp	.+4      	; 0xde2 <main+0x532>
     dde:	2f 9a       	sbi	0x05, 7	; 5
					PORTB |= 1<<7;
     de0:	03 c0       	rjmp	.+6      	; 0xde8 <main+0x538>
     de2:	2f 98       	cbi	0x05, 7	; 5
				} else {
					PORTB &= ~(1<<7);
     de4:	01 c0       	rjmp	.+2      	; 0xde8 <main+0x538>
     de6:	2f 98       	cbi	0x05, 7	; 5
				}
			}else{
				PORTB &= ~(1<<7);
     de8:	20 91 36 03 	lds	r18, 0x0336	; 0x800336 <__data_end>
			}
			if(horaCarroEntrada.diffSec(relogio) > 60){
     dec:	30 91 37 03 	lds	r19, 0x0337	; 0x800337 <__data_end+0x1>
     df0:	40 91 38 03 	lds	r20, 0x0338	; 0x800338 <__data_end+0x2>
     df4:	50 91 39 03 	lds	r21, 0x0339	; 0x800339 <__data_end+0x3>
     df8:	60 91 3a 03 	lds	r22, 0x033A	; 0x80033a <__data_end+0x4>
     dfc:	ce 01       	movw	r24, r28
     dfe:	8f 5b       	subi	r24, 0xBF	; 191
     e00:	9f 4f       	sbci	r25, 0xFF	; 255
     e02:	3d da       	rcall	.-2950   	; 0x27e <_ZN8DataHora7diffSecES_>
     e04:	cd 97       	sbiw	r24, 0x3d	; 61
     e06:	44 f0       	brlt	.+16     	; 0xe18 <main+0x568>
				cancelaFecha('1');
     e08:	81 e3       	ldi	r24, 0x31	; 49
     e0a:	cb dc       	rcall	.-1642   	; 0x7a2 <_Z12cancelaFechac>
     e0c:	83 e0       	ldi	r24, 0x03	; 3
				carroEntrada = -1;
				carros[carroEntrada].estado = FORA;
     e0e:	80 93 38 03 	sts	0x0338, r24	; 0x800338 <__data_end+0x2>
     e12:	aa 24       	eor	r10, r10
			}else{
				PORTB &= ~(1<<7);
			}
			if(horaCarroEntrada.diffSec(relogio) > 60){
				cancelaFecha('1');
				carroEntrada = -1;
     e14:	aa 94       	dec	r10
     e16:	ba 2c       	mov	r11, r10
				carros[carroEntrada].estado = FORA;
			}
		}
		if(carroSaida != -1){
     e18:	ef ef       	ldi	r30, 0xFF	; 255
     e1a:	ce 16       	cp	r12, r30
     e1c:	de 06       	cpc	r13, r30
			if(horaCarroSaida.diffSec(relogio) > 40){
     e1e:	b1 f1       	breq	.+108    	; 0xe8c <main+0x5dc>
     e20:	20 91 36 03 	lds	r18, 0x0336	; 0x800336 <__data_end>
     e24:	30 91 37 03 	lds	r19, 0x0337	; 0x800337 <__data_end+0x1>
     e28:	40 91 38 03 	lds	r20, 0x0338	; 0x800338 <__data_end+0x2>
     e2c:	50 91 39 03 	lds	r21, 0x0339	; 0x800339 <__data_end+0x3>
     e30:	60 91 3a 03 	lds	r22, 0x033A	; 0x80033a <__data_end+0x4>
     e34:	ce 01       	movw	r24, r28
     e36:	8a 5b       	subi	r24, 0xBA	; 186
     e38:	9f 4f       	sbci	r25, 0xFF	; 255
     e3a:	21 da       	rcall	.-3006   	; 0x27e <_ZN8DataHora7diffSecES_>
				escreveVetor("começa a piscar", 16);
     e3c:	89 97       	sbiw	r24, 0x29	; 41
     e3e:	6c f0       	brlt	.+26     	; 0xe5a <main+0x5aa>
     e40:	60 e1       	ldi	r22, 0x10	; 16
     e42:	70 e0       	ldi	r23, 0x00	; 0
     e44:	88 e5       	ldi	r24, 0x58	; 88
				if(relogio.seg%2){
     e46:	92 e0       	ldi	r25, 0x02	; 2
     e48:	eb d3       	rcall	.+2006   	; 0x1620 <_Z12escreveVetorPci>
     e4a:	80 91 3a 03 	lds	r24, 0x033A	; 0x80033a <__data_end+0x4>
					PORTB |= 1<<7;
     e4e:	80 ff       	sbrs	r24, 0
     e50:	02 c0       	rjmp	.+4      	; 0xe56 <main+0x5a6>
				} else {
					PORTB &= ~(1<<7);
     e52:	2f 9a       	sbi	0x05, 7	; 5
     e54:	03 c0       	rjmp	.+6      	; 0xe5c <main+0x5ac>
				}
			}else{
				PORTB &= ~(1<<7);
     e56:	2f 98       	cbi	0x05, 7	; 5
			}
			if(horaCarroSaida.diffSec(relogio) > 60){
     e58:	01 c0       	rjmp	.+2      	; 0xe5c <main+0x5ac>
     e5a:	2f 98       	cbi	0x05, 7	; 5
     e5c:	20 91 36 03 	lds	r18, 0x0336	; 0x800336 <__data_end>
     e60:	30 91 37 03 	lds	r19, 0x0337	; 0x800337 <__data_end+0x1>
     e64:	40 91 38 03 	lds	r20, 0x0338	; 0x800338 <__data_end+0x2>
     e68:	50 91 39 03 	lds	r21, 0x0339	; 0x800339 <__data_end+0x3>
     e6c:	60 91 3a 03 	lds	r22, 0x033A	; 0x80033a <__data_end+0x4>
     e70:	ce 01       	movw	r24, r28
     e72:	8a 5b       	subi	r24, 0xBA	; 186
				cancelaFecha('2');
     e74:	9f 4f       	sbci	r25, 0xFF	; 255
     e76:	03 da       	rcall	.-3066   	; 0x27e <_ZN8DataHora7diffSecES_>
     e78:	cd 97       	sbiw	r24, 0x3d	; 61
				carroSaida = -1;
				carros[carroSaida].estado = DENTRO;
     e7a:	44 f0       	brlt	.+16     	; 0xe8c <main+0x5dc>
     e7c:	82 e3       	ldi	r24, 0x32	; 50
     e7e:	91 dc       	rcall	.-1758   	; 0x7a2 <_Z12cancelaFechac>
			}else{
				PORTB &= ~(1<<7);
			}
			if(horaCarroSaida.diffSec(relogio) > 60){
				cancelaFecha('2');
				carroSaida = -1;
     e80:	81 e0       	ldi	r24, 0x01	; 1
     e82:	80 93 38 03 	sts	0x0338, r24	; 0x800338 <__data_end+0x2>
				carros[carroSaida].estado = DENTRO;
			}
		}
		
		switch(estado){
     e86:	cc 24       	eor	r12, r12
     e88:	ca 94       	dec	r12
     e8a:	dc 2c       	mov	r13, r12
     e8c:	80 91 01 02 	lds	r24, 0x0201	; 0x800201 <estado>
     e90:	90 e0       	ldi	r25, 0x00	; 0
     e92:	88 30       	cpi	r24, 0x08	; 8
     e94:	91 05       	cpc	r25, r1
     e96:	08 f0       	brcs	.+2      	; 0xe9a <main+0x5ea>
     e98:	e4 c2       	rjmp	.+1480   	; 0x1462 <__EEPROM_REGION_LENGTH__+0x462>
     e9a:	fc 01       	movw	r30, r24
     e9c:	88 27       	eor	r24, r24
     e9e:	ec 57       	subi	r30, 0x7C	; 124
			case ESTADOINICIAL:
				if(recontar & (1<<0)) pedeMapa('0');
     ea0:	ff 4f       	sbci	r31, 0xFF	; 255
     ea2:	8f 4f       	sbci	r24, 0xFF	; 255
     ea4:	12 c5       	rjmp	.+2596   	; 0x18ca <__tablejump2__>
				if(recontar & (1<<1)) pedeMapa('1');
     ea6:	e0 fe       	sbrs	r14, 0
     ea8:	02 c0       	rjmp	.+4      	; 0xeae <main+0x5fe>
     eaa:	80 e3       	ldi	r24, 0x30	; 48
     eac:	b7 dc       	rcall	.-1682   	; 0x81c <_Z8pedeMapac>
				if(recontar & (1<<2)) pedeMapa('2');
     eae:	e1 fe       	sbrs	r14, 1
     eb0:	02 c0       	rjmp	.+4      	; 0xeb6 <main+0x606>
     eb2:	81 e3       	ldi	r24, 0x31	; 49
     eb4:	b3 dc       	rcall	.-1690   	; 0x81c <_Z8pedeMapac>
				
				if(ultMostraVagas.diffSec(relogio)>15){
     eb6:	e2 fe       	sbrs	r14, 2
     eb8:	02 c0       	rjmp	.+4      	; 0xebe <main+0x60e>
     eba:	82 e3       	ldi	r24, 0x32	; 50
     ebc:	af dc       	rcall	.-1698   	; 0x81c <_Z8pedeMapac>
     ebe:	20 91 36 03 	lds	r18, 0x0336	; 0x800336 <__data_end>
     ec2:	30 91 37 03 	lds	r19, 0x0337	; 0x800337 <__data_end+0x1>
     ec6:	40 91 38 03 	lds	r20, 0x0338	; 0x800338 <__data_end+0x2>
     eca:	50 91 39 03 	lds	r21, 0x0339	; 0x800339 <__data_end+0x3>
     ece:	60 91 3a 03 	lds	r22, 0x033A	; 0x80033a <__data_end+0x4>
     ed2:	ce 01       	movw	r24, r28
     ed4:	80 55       	subi	r24, 0x50	; 80
     ed6:	9f 4f       	sbci	r25, 0xFF	; 255
					ultMostraVagas.setByDataHora(relogio);
     ed8:	d2 d9       	rcall	.-3164   	; 0x27e <_ZN8DataHora7diffSecES_>
     eda:	40 97       	sbiw	r24, 0x10	; 16
     edc:	0c f4       	brge	.+2      	; 0xee0 <main+0x630>
     ede:	7d c0       	rjmp	.+250    	; 0xfda <main+0x72a>
     ee0:	20 91 36 03 	lds	r18, 0x0336	; 0x800336 <__data_end>
     ee4:	30 91 37 03 	lds	r19, 0x0337	; 0x800337 <__data_end+0x1>
     ee8:	40 91 38 03 	lds	r20, 0x0338	; 0x800338 <__data_end+0x2>
     eec:	50 91 39 03 	lds	r21, 0x0339	; 0x800339 <__data_end+0x3>
					clear_display();
     ef0:	60 91 3a 03 	lds	r22, 0x033A	; 0x80033a <__data_end+0x4>
					lcdWritePos("Vagas Terreo:",0,0);
     ef4:	ce 01       	movw	r24, r28
     ef6:	80 55       	subi	r24, 0x50	; 80
     ef8:	9f 4f       	sbci	r25, 0xFF	; 255
     efa:	78 d9       	rcall	.-3344   	; 0x1ec <_ZN8DataHora13setByDataHoraES_>
     efc:	92 db       	rcall	.-2268   	; 0x622 <_Z13clear_displayv>
					tmp = 36-contAndar[0];					
     efe:	40 e0       	ldi	r20, 0x00	; 0
     f00:	60 e0       	ldi	r22, 0x00	; 0
     f02:	88 e6       	ldi	r24, 0x68	; 104
     f04:	92 e0       	ldi	r25, 0x02	; 2
     f06:	db db       	rcall	.-2122   	; 0x6be <_Z11lcdWritePosPccc>
     f08:	0f 2e       	mov	r0, r31
     f0a:	f4 e2       	ldi	r31, 0x24	; 36
     f0c:	8f 2e       	mov	r8, r31
     f0e:	f0 2d       	mov	r31, r0
     f10:	c3 55       	subi	r28, 0x53	; 83
					lcdWritechar(tmp/10+0x30);
     f12:	df 4f       	sbci	r29, 0xFF	; 255
     f14:	88 81       	ld	r24, Y
     f16:	cd 5a       	subi	r28, 0xAD	; 173
     f18:	d0 40       	sbci	r29, 0x00	; 0
     f1a:	98 2c       	mov	r9, r8
     f1c:	98 1a       	sub	r9, r24
     f1e:	1d ec       	ldi	r17, 0xCD	; 205
     f20:	91 9e       	mul	r9, r17
     f22:	01 2d       	mov	r16, r1
					lcdWritechar(tmp%10+0x30);
     f24:	11 24       	eor	r1, r1
     f26:	06 95       	lsr	r16
     f28:	06 95       	lsr	r16
     f2a:	06 95       	lsr	r16
     f2c:	80 e3       	ldi	r24, 0x30	; 48
     f2e:	80 0f       	add	r24, r16
     f30:	75 db       	rcall	.-2326   	; 0x61c <_Z12lcdWritecharc>
     f32:	00 0f       	add	r16, r16
					atrasoms(1000);
     f34:	80 2f       	mov	r24, r16
     f36:	88 0f       	add	r24, r24
     f38:	88 0f       	add	r24, r24
     f3a:	08 0f       	add	r16, r24
					
					clear_display();
     f3c:	89 2d       	mov	r24, r9
     f3e:	80 1b       	sub	r24, r16
					lcdWritePos("Vagas 1 andar:",0,0);
     f40:	80 5d       	subi	r24, 0xD0	; 208
     f42:	6c db       	rcall	.-2344   	; 0x61c <_Z12lcdWritecharc>
     f44:	88 ee       	ldi	r24, 0xE8	; 232
     f46:	93 e0       	ldi	r25, 0x03	; 3
     f48:	1a d9       	rcall	.-3532   	; 0x17e <_Z8atrasomsj>
     f4a:	6b db       	rcall	.-2346   	; 0x622 <_Z13clear_displayv>
					tmp = 36-contAndar[1];
     f4c:	40 e0       	ldi	r20, 0x00	; 0
     f4e:	60 e0       	ldi	r22, 0x00	; 0
     f50:	86 e7       	ldi	r24, 0x76	; 118
     f52:	92 e0       	ldi	r25, 0x02	; 2
     f54:	b4 db       	rcall	.-2200   	; 0x6be <_Z11lcdWritePosPccc>
     f56:	c2 55       	subi	r28, 0x52	; 82
					lcdWritechar(tmp/10+0x30);
     f58:	df 4f       	sbci	r29, 0xFF	; 255
     f5a:	88 81       	ld	r24, Y
     f5c:	ce 5a       	subi	r28, 0xAE	; 174
     f5e:	d0 40       	sbci	r29, 0x00	; 0
     f60:	98 2c       	mov	r9, r8
     f62:	98 1a       	sub	r9, r24
     f64:	91 9e       	mul	r9, r17
     f66:	01 2d       	mov	r16, r1
     f68:	11 24       	eor	r1, r1
					lcdWritechar(tmp%10+0x30);
     f6a:	06 95       	lsr	r16
     f6c:	06 95       	lsr	r16
     f6e:	06 95       	lsr	r16
     f70:	80 e3       	ldi	r24, 0x30	; 48
     f72:	80 0f       	add	r24, r16
     f74:	53 db       	rcall	.-2394   	; 0x61c <_Z12lcdWritecharc>
     f76:	00 0f       	add	r16, r16
     f78:	80 2f       	mov	r24, r16
     f7a:	88 0f       	add	r24, r24
					atrasoms(1000);
     f7c:	88 0f       	add	r24, r24
     f7e:	08 0f       	add	r16, r24
     f80:	89 2d       	mov	r24, r9
     f82:	80 1b       	sub	r24, r16
					
					clear_display();
     f84:	80 5d       	subi	r24, 0xD0	; 208
					lcdWritePos("Vagas 2 andar:",0,0);
     f86:	4a db       	rcall	.-2412   	; 0x61c <_Z12lcdWritecharc>
     f88:	88 ee       	ldi	r24, 0xE8	; 232
     f8a:	93 e0       	ldi	r25, 0x03	; 3
     f8c:	f8 d8       	rcall	.-3600   	; 0x17e <_Z8atrasomsj>
     f8e:	49 db       	rcall	.-2414   	; 0x622 <_Z13clear_displayv>
					tmp = 36-contAndar[2];
     f90:	40 e0       	ldi	r20, 0x00	; 0
     f92:	60 e0       	ldi	r22, 0x00	; 0
     f94:	85 e8       	ldi	r24, 0x85	; 133
     f96:	92 e0       	ldi	r25, 0x02	; 2
     f98:	92 db       	rcall	.-2268   	; 0x6be <_Z11lcdWritePosPccc>
     f9a:	c1 55       	subi	r28, 0x51	; 81
					lcdWritechar(tmp/10+0x30);
     f9c:	df 4f       	sbci	r29, 0xFF	; 255
     f9e:	88 81       	ld	r24, Y
     fa0:	cf 5a       	subi	r28, 0xAF	; 175
     fa2:	d0 40       	sbci	r29, 0x00	; 0
     fa4:	08 2d       	mov	r16, r8
     fa6:	08 1b       	sub	r16, r24
     fa8:	01 9f       	mul	r16, r17
     faa:	11 2d       	mov	r17, r1
     fac:	11 24       	eor	r1, r1
					lcdWritechar(tmp%10+0x30);
     fae:	16 95       	lsr	r17
     fb0:	16 95       	lsr	r17
     fb2:	16 95       	lsr	r17
     fb4:	80 e3       	ldi	r24, 0x30	; 48
     fb6:	81 0f       	add	r24, r17
     fb8:	31 db       	rcall	.-2462   	; 0x61c <_Z12lcdWritecharc>
     fba:	11 0f       	add	r17, r17
     fbc:	81 2f       	mov	r24, r17
					atrasoms(1000);
     fbe:	88 0f       	add	r24, r24
     fc0:	88 0f       	add	r24, r24
     fc2:	18 0f       	add	r17, r24
					telaNova = 1;
     fc4:	80 2f       	mov	r24, r16
     fc6:	81 1b       	sub	r24, r17
     fc8:	80 5d       	subi	r24, 0xD0	; 208
     fca:	28 db       	rcall	.-2480   	; 0x61c <_Z12lcdWritecharc>
				}
				if(telaNova){
     fcc:	88 ee       	ldi	r24, 0xE8	; 232
     fce:	93 e0       	ldi	r25, 0x03	; 3
     fd0:	d6 d8       	rcall	.-3668   	; 0x17e <_Z8atrasomsj>
					clear_display();
     fd2:	81 e0       	ldi	r24, 0x01	; 1
					lcdWritePos("EstacionaMicros",0,0);					
     fd4:	80 93 00 02 	sts	0x0200, r24	; 0x800200 <__DATA_REGION_ORIGIN__>
     fd8:	04 c0       	rjmp	.+8      	; 0xfe2 <main+0x732>
     fda:	80 91 00 02 	lds	r24, 0x0200	; 0x800200 <__DATA_REGION_ORIGIN__>
     fde:	88 23       	and	r24, r24
					indice=0;
					telaNova=0;
     fe0:	41 f0       	breq	.+16     	; 0xff2 <main+0x742>
     fe2:	1f db       	rcall	.-2498   	; 0x622 <_Z13clear_displayv>
				}
				char horastr[3];
				if(horaLetreiro.diffSec(relogio) >= 1 /*|| 1*/){
     fe4:	40 e0       	ldi	r20, 0x00	; 0
     fe6:	60 e0       	ldi	r22, 0x00	; 0
     fe8:	84 e9       	ldi	r24, 0x94	; 148
     fea:	92 e0       	ldi	r25, 0x02	; 2
     fec:	68 db       	rcall	.-2352   	; 0x6be <_Z11lcdWritePosPccc>
     fee:	10 92 00 02 	sts	0x0200, r1	; 0x800200 <__DATA_REGION_ORIGIN__>
     ff2:	20 91 36 03 	lds	r18, 0x0336	; 0x800336 <__data_end>
     ff6:	30 91 37 03 	lds	r19, 0x0337	; 0x800337 <__data_end+0x1>
     ffa:	40 91 38 03 	lds	r20, 0x0338	; 0x800338 <__data_end+0x2>
     ffe:	50 91 39 03 	lds	r21, 0x0339	; 0x800339 <__data_end+0x3>
    1002:	60 91 3a 03 	lds	r22, 0x033A	; 0x80033a <__data_end+0x4>
    1006:	ce 01       	movw	r24, r28
					//prints horario:
					setCursor(0,1);
    1008:	85 5b       	subi	r24, 0xB5	; 181
    100a:	9f 4f       	sbci	r25, 0xFF	; 255
    100c:	38 d9       	rcall	.-3472   	; 0x27e <_ZN8DataHora7diffSecES_>
    100e:	18 16       	cp	r1, r24
    1010:	19 06       	cpc	r1, r25
					//lcdWrite("        "); //clear local, posicao do horario
					setCursor(0,1);
    1012:	0c f0       	brlt	.+2      	; 0x1016 <__EEPROM_REGION_LENGTH__+0x16>
    1014:	26 c2       	rjmp	.+1100   	; 0x1462 <__EEPROM_REGION_LENGTH__+0x462>
    1016:	61 e0       	ldi	r22, 0x01	; 1
    1018:	70 e0       	ldi	r23, 0x00	; 0
    101a:	80 e0       	ldi	r24, 0x00	; 0
					if(relogio.hora <10) lcdWritechar('0');
    101c:	90 e0       	ldi	r25, 0x00	; 0
    101e:	13 db       	rcall	.-2522   	; 0x646 <_Z9setCursorjj>
    1020:	61 e0       	ldi	r22, 0x01	; 1
    1022:	70 e0       	ldi	r23, 0x00	; 0
    1024:	80 e0       	ldi	r24, 0x00	; 0
    1026:	90 e0       	ldi	r25, 0x00	; 0
					itoa(relogio.hora, horastr, 10);
    1028:	0e db       	rcall	.-2532   	; 0x646 <_Z9setCursorjj>
    102a:	80 91 38 03 	lds	r24, 0x0338	; 0x800338 <__data_end+0x2>
    102e:	8a 30       	cpi	r24, 0x0A	; 10
    1030:	10 f4       	brcc	.+4      	; 0x1036 <__EEPROM_REGION_LENGTH__+0x36>
    1032:	80 e3       	ldi	r24, 0x30	; 48
    1034:	f3 da       	rcall	.-2586   	; 0x61c <_Z12lcdWritecharc>
    1036:	06 e3       	ldi	r16, 0x36	; 54
    1038:	13 e0       	ldi	r17, 0x03	; 3
					lcdWrite(horastr);
    103a:	f8 01       	movw	r30, r16
    103c:	82 81       	ldd	r24, Z+2	; 0x02
    103e:	4a e0       	ldi	r20, 0x0A	; 10
    1040:	be 01       	movw	r22, r28
					lcdWritechar(':');
    1042:	61 54       	subi	r22, 0x41	; 65
    1044:	7f 4f       	sbci	r23, 0xFF	; 255
    1046:	90 e0       	ldi	r25, 0x00	; 0
					if(relogio.min <10) lcdWritechar('0');
    1048:	65 d4       	rcall	.+2250   	; 0x1914 <__itoa_ncheck>
    104a:	ce 01       	movw	r24, r28
    104c:	81 54       	subi	r24, 0x41	; 65
    104e:	9f 4f       	sbci	r25, 0xFF	; 255
    1050:	16 db       	rcall	.-2516   	; 0x67e <_Z8lcdWritePc>
    1052:	8a e3       	ldi	r24, 0x3A	; 58
    1054:	e3 da       	rcall	.-2618   	; 0x61c <_Z12lcdWritecharc>
					itoa(relogio.min, horastr, 10);
    1056:	f8 01       	movw	r30, r16
    1058:	83 81       	ldd	r24, Z+3	; 0x03
    105a:	8a 30       	cpi	r24, 0x0A	; 10
    105c:	10 f4       	brcc	.+4      	; 0x1062 <__EEPROM_REGION_LENGTH__+0x62>
    105e:	80 e3       	ldi	r24, 0x30	; 48
    1060:	dd da       	rcall	.-2630   	; 0x61c <_Z12lcdWritecharc>
    1062:	06 e3       	ldi	r16, 0x36	; 54
    1064:	13 e0       	ldi	r17, 0x03	; 3
    1066:	f8 01       	movw	r30, r16
    1068:	83 81       	ldd	r24, Z+3	; 0x03
					lcdWrite(horastr);
    106a:	4a e0       	ldi	r20, 0x0A	; 10
    106c:	be 01       	movw	r22, r28
    106e:	61 54       	subi	r22, 0x41	; 65
    1070:	7f 4f       	sbci	r23, 0xFF	; 255
					lcdWritechar(':');
    1072:	90 e0       	ldi	r25, 0x00	; 0
    1074:	4f d4       	rcall	.+2206   	; 0x1914 <__itoa_ncheck>
					if(relogio.seg <10) lcdWritechar('0');
    1076:	ce 01       	movw	r24, r28
    1078:	81 54       	subi	r24, 0x41	; 65
    107a:	9f 4f       	sbci	r25, 0xFF	; 255
    107c:	00 db       	rcall	.-2560   	; 0x67e <_Z8lcdWritePc>
    107e:	8a e3       	ldi	r24, 0x3A	; 58
    1080:	cd da       	rcall	.-2662   	; 0x61c <_Z12lcdWritecharc>
    1082:	f8 01       	movw	r30, r16
    1084:	84 81       	ldd	r24, Z+4	; 0x04
    1086:	8a 30       	cpi	r24, 0x0A	; 10
    1088:	10 f4       	brcc	.+4      	; 0x108e <__EEPROM_REGION_LENGTH__+0x8e>
    108a:	80 e3       	ldi	r24, 0x30	; 48
    108c:	c7 da       	rcall	.-2674   	; 0x61c <_Z12lcdWritecharc>
    108e:	80 91 3a 03 	lds	r24, 0x033A	; 0x80033a <__data_end+0x4>
    1092:	4a e0       	ldi	r20, 0x0A	; 10
					itoa(relogio.seg, horastr, 10);
					lcdWrite(horastr);		
    1094:	be 01       	movw	r22, r28
    1096:	61 54       	subi	r22, 0x41	; 65
    1098:	7f 4f       	sbci	r23, 0xFF	; 255
    109a:	90 e0       	ldi	r25, 0x00	; 0
						}else{
							lcdWritechar(letreiro[i+indice]);
						}
					}*/
					indice++;
					horaLetreiro.setByDataHora(relogio);
    109c:	3b d4       	rcall	.+2166   	; 0x1914 <__itoa_ncheck>
    109e:	ce 01       	movw	r24, r28
    10a0:	81 54       	subi	r24, 0x41	; 65
    10a2:	9f 4f       	sbci	r25, 0xFF	; 255
    10a4:	ec da       	rcall	.-2600   	; 0x67e <_Z8lcdWritePc>
    10a6:	20 91 36 03 	lds	r18, 0x0336	; 0x800336 <__data_end>
    10aa:	30 91 37 03 	lds	r19, 0x0337	; 0x800337 <__data_end+0x1>
    10ae:	40 91 38 03 	lds	r20, 0x0338	; 0x800338 <__data_end+0x2>
    10b2:	50 91 39 03 	lds	r21, 0x0339	; 0x800339 <__data_end+0x3>
    10b6:	60 91 3a 03 	lds	r22, 0x033A	; 0x80033a <__data_end+0x4>
//					lcdWritecharPos(horaLetreiro.seg/10+0x30, 3,1);
//					lcdWritecharPos(horaLetreiro.seg%10+0x30, 4,1);
				}
				break;
			case NUMEROCARTAO:
				if(telaNova){
    10ba:	ce 01       	movw	r24, r28
    10bc:	85 5b       	subi	r24, 0xB5	; 181
    10be:	9f 4f       	sbci	r25, 0xFF	; 255
    10c0:	95 d8       	rcall	.-3798   	; 0x1ec <_ZN8DataHora13setByDataHoraES_>
					if(carros[carroSaida].estEspecial){
    10c2:	cf c1       	rjmp	.+926    	; 0x1462 <__EEPROM_REGION_LENGTH__+0x462>
    10c4:	80 91 00 02 	lds	r24, 0x0200	; 0x800200 <__DATA_REGION_ORIGIN__>
    10c8:	88 23       	and	r24, r24
    10ca:	09 f4       	brne	.+2      	; 0x10ce <__EEPROM_REGION_LENGTH__+0xce>
    10cc:	61 c0       	rjmp	.+194    	; 0x1190 <__EEPROM_REGION_LENGTH__+0x190>
    10ce:	87 e1       	ldi	r24, 0x17	; 23
    10d0:	8c 9d       	mul	r24, r12
    10d2:	f0 01       	movw	r30, r0
    10d4:	8d 9d       	mul	r24, r13
						clear_display();
    10d6:	f0 0d       	add	r31, r0
    10d8:	11 24       	eor	r1, r1
						lcdWritePos("Vaga Ilegal",0,0);
    10da:	e5 5c       	subi	r30, 0xC5	; 197
    10dc:	fc 4f       	sbci	r31, 0xFC	; 252
    10de:	85 89       	ldd	r24, Z+21	; 0x15
    10e0:	88 23       	and	r24, r24
    10e2:	c9 f0       	breq	.+50     	; 0x1116 <__EEPROM_REGION_LENGTH__+0x116>
						lcdWritePos("Multa se reincid",0,1);
    10e4:	9e da       	rcall	.-2756   	; 0x622 <_Z13clear_displayv>
    10e6:	40 e0       	ldi	r20, 0x00	; 0
    10e8:	60 e0       	ldi	r22, 0x00	; 0
    10ea:	84 ea       	ldi	r24, 0xA4	; 164
    10ec:	92 e0       	ldi	r25, 0x02	; 2
						if (carros[carroSaida].estEspecialAntes)
    10ee:	e7 da       	rcall	.-2610   	; 0x6be <_Z11lcdWritePosPccc>
    10f0:	41 e0       	ldi	r20, 0x01	; 1
    10f2:	60 e0       	ldi	r22, 0x00	; 0
    10f4:	80 eb       	ldi	r24, 0xB0	; 176
    10f6:	92 e0       	ldi	r25, 0x02	; 2
    10f8:	e2 da       	rcall	.-2620   	; 0x6be <_Z11lcdWritePosPccc>
    10fa:	87 e1       	ldi	r24, 0x17	; 23
    10fc:	8c 9d       	mul	r24, r12
    10fe:	f0 01       	movw	r30, r0
    1100:	8d 9d       	mul	r24, r13
						{
							lcdWrite("Reincidente");
    1102:	f0 0d       	add	r31, r0
    1104:	11 24       	eor	r1, r1
    1106:	e5 5c       	subi	r30, 0xC5	; 197
    1108:	fc 4f       	sbci	r31, 0xFC	; 252
						}
					}
					clear_display();
    110a:	86 89       	ldd	r24, Z+22	; 0x16
    110c:	88 23       	and	r24, r24
					lcdWritePos("Pague R$ ",0,0);
    110e:	19 f0       	breq	.+6      	; 0x1116 <__EEPROM_REGION_LENGTH__+0x116>
    1110:	81 ec       	ldi	r24, 0xC1	; 193
    1112:	92 e0       	ldi	r25, 0x02	; 2
    1114:	b4 da       	rcall	.-2712   	; 0x67e <_Z8lcdWritePc>
    1116:	85 da       	rcall	.-2806   	; 0x622 <_Z13clear_displayv>
					//int pgto = carros[carroSaida].calculaPgto(relogio);
					char pgto[5];
					itoa(carros[carroSaida].calculaPgto(relogio), pgto, 10);
    1118:	40 e0       	ldi	r20, 0x00	; 0
    111a:	60 e0       	ldi	r22, 0x00	; 0
    111c:	8d ec       	ldi	r24, 0xCD	; 205
    111e:	92 e0       	ldi	r25, 0x02	; 2
    1120:	ce da       	rcall	.-2660   	; 0x6be <_Z11lcdWritePosPccc>
    1122:	27 e1       	ldi	r18, 0x17	; 23
    1124:	2c 9d       	mul	r18, r12
    1126:	c0 01       	movw	r24, r0
    1128:	2d 9d       	mul	r18, r13
    112a:	90 0d       	add	r25, r0
    112c:	11 24       	eor	r1, r1
    112e:	20 91 36 03 	lds	r18, 0x0336	; 0x800336 <__data_end>
    1132:	30 91 37 03 	lds	r19, 0x0337	; 0x800337 <__data_end+0x1>
    1136:	40 91 38 03 	lds	r20, 0x0338	; 0x800338 <__data_end+0x2>
    113a:	50 91 39 03 	lds	r21, 0x0339	; 0x800339 <__data_end+0x3>
    113e:	60 91 3a 03 	lds	r22, 0x033A	; 0x80033a <__data_end+0x4>
    1142:	85 5c       	subi	r24, 0xC5	; 197
    1144:	9c 4f       	sbci	r25, 0xFC	; 252
					lcdWrite(pgto);
    1146:	8e d9       	rcall	.-3300   	; 0x464 <_ZN7Veiculo11calculaPgtoE8DataHora>
    1148:	4a e0       	ldi	r20, 0x0A	; 10
    114a:	be 01       	movw	r22, r28
    114c:	61 54       	subi	r22, 0x41	; 65
    114e:	7f 4f       	sbci	r23, 0xFF	; 255
					
					lcdWritePos("CARTAO",0,1);
    1150:	e1 d3       	rcall	.+1986   	; 0x1914 <__itoa_ncheck>
    1152:	ce 01       	movw	r24, r28
    1154:	81 54       	subi	r24, 0x41	; 65
    1156:	9f 4f       	sbci	r25, 0xFF	; 255
    1158:	92 da       	rcall	.-2780   	; 0x67e <_Z8lcdWritePc>
					telaNova = 0;
    115a:	41 e0       	ldi	r20, 0x01	; 1
    115c:	60 e0       	ldi	r22, 0x00	; 0
					
					for(int i=0; i<numeroCartaoPos; i++){
    115e:	87 ed       	ldi	r24, 0xD7	; 215
    1160:	92 e0       	ldi	r25, 0x02	; 2
    1162:	ad da       	rcall	.-2726   	; 0x6be <_Z11lcdWritePosPccc>
    1164:	10 92 00 02 	sts	0x0200, r1	; 0x800200 <__DATA_REGION_ORIGIN__>
    1168:	77 20       	and	r7, r7
    116a:	91 f0       	breq	.+36     	; 0x1190 <__EEPROM_REGION_LENGTH__+0x190>
    116c:	8e 01       	movw	r16, r28
						setCursor(0,1);
    116e:	00 5b       	subi	r16, 0xB0	; 176
    1170:	1f 4f       	sbci	r17, 0xFF	; 255
    1172:	48 01       	movw	r8, r16
    1174:	87 0c       	add	r8, r7
    1176:	91 1c       	adc	r9, r1
						lcdWritechar(numeroCartao[i]);
    1178:	61 e0       	ldi	r22, 0x01	; 1
    117a:	70 e0       	ldi	r23, 0x00	; 0
    117c:	80 e0       	ldi	r24, 0x00	; 0
    117e:	90 e0       	ldi	r25, 0x00	; 0
					lcdWrite(pgto);
					
					lcdWritePos("CARTAO",0,1);
					telaNova = 0;
					
					for(int i=0; i<numeroCartaoPos; i++){
    1180:	62 da       	rcall	.-2876   	; 0x646 <_Z9setCursorjj>
    1182:	f8 01       	movw	r30, r16
						setCursor(0,1);
						lcdWritechar(numeroCartao[i]);
					}
				}
				novoBotao = le_teclado();
    1184:	81 91       	ld	r24, Z+
    1186:	8f 01       	movw	r16, r30
				if(novoBotao == (char)-1){
    1188:	49 da       	rcall	.-2926   	; 0x61c <_Z12lcdWritecharc>
    118a:	80 16       	cp	r8, r16
					
				}else if(novoBotao == '*'){
    118c:	91 06       	cpc	r9, r17
    118e:	a1 f7       	brne	.-24     	; 0x1178 <__EEPROM_REGION_LENGTH__+0x178>
					if(numeroCartaoPos>0){
    1190:	52 d3       	rcall	.+1700   	; 0x1836 <_Z10le_tecladov>
    1192:	8f 3f       	cpi	r24, 0xFF	; 255
    1194:	09 f4       	brne	.+2      	; 0x1198 <__EEPROM_REGION_LENGTH__+0x198>
						numeroCartaoPos--;
    1196:	65 c1       	rjmp	.+714    	; 0x1462 <__EEPROM_REGION_LENGTH__+0x462>
						numeroCartao[numeroCartaoPos]='\0';
    1198:	8a 32       	cpi	r24, 0x2A	; 42
    119a:	81 f4       	brne	.+32     	; 0x11bc <__EEPROM_REGION_LENGTH__+0x1bc>
    119c:	77 20       	and	r7, r7
    119e:	09 f4       	brne	.+2      	; 0x11a2 <__EEPROM_REGION_LENGTH__+0x1a2>
    11a0:	60 c1       	rjmp	.+704    	; 0x1462 <__EEPROM_REGION_LENGTH__+0x462>
    11a2:	7a 94       	dec	r7
    11a4:	e0 e5       	ldi	r30, 0x50	; 80
						lcdWritecharPos(' ',numeroCartaoPos,1);
    11a6:	f0 e0       	ldi	r31, 0x00	; 0
    11a8:	ec 0f       	add	r30, r28
    11aa:	fd 1f       	adc	r31, r29
    11ac:	e7 0d       	add	r30, r7
    11ae:	f1 1d       	adc	r31, r1
    11b0:	10 82       	st	Z, r1
					}
				}else if(novoBotao == '#'){
    11b2:	41 e0       	ldi	r20, 0x01	; 1
    11b4:	67 2d       	mov	r22, r7
					if(numeroCartaoPos==6){
    11b6:	80 e2       	ldi	r24, 0x20	; 32
    11b8:	8f da       	rcall	.-2786   	; 0x6d8 <_Z15lcdWritecharPosccc>
    11ba:	53 c1       	rjmp	.+678    	; 0x1462 <__EEPROM_REGION_LENGTH__+0x462>
						numeroCartao[6]='\0';
    11bc:	83 32       	cpi	r24, 0x23	; 35
    11be:	d9 f4       	brne	.+54     	; 0x11f6 <__EEPROM_REGION_LENGTH__+0x1f6>
    11c0:	f6 e0       	ldi	r31, 0x06	; 6
						escreveVetor("EC",2);
    11c2:	7f 12       	cpse	r7, r31
    11c4:	4e c1       	rjmp	.+668    	; 0x1462 <__EEPROM_REGION_LENGTH__+0x462>
    11c6:	67 96       	adiw	r28, 0x17	; 23
    11c8:	1f ae       	std	Y+63, r1	; 0x3f
    11ca:	67 97       	sbiw	r28, 0x17	; 23
						escreve(7);
    11cc:	62 e0       	ldi	r22, 0x02	; 2
    11ce:	70 e0       	ldi	r23, 0x00	; 0
						escreveVetor(numeroCartao, 7);
    11d0:	8c e1       	ldi	r24, 0x1C	; 28
    11d2:	92 e0       	ldi	r25, 0x02	; 2
    11d4:	25 d2       	rcall	.+1098   	; 0x1620 <_Z12escreveVetorPci>
    11d6:	87 e0       	ldi	r24, 0x07	; 7
    11d8:	07 d2       	rcall	.+1038   	; 0x15e8 <_Z7escrevec>
    11da:	67 e0       	ldi	r22, 0x07	; 7
    11dc:	70 e0       	ldi	r23, 0x00	; 0
						numeroCartaoPos = 0;

						telaNova = 1;
    11de:	ce 01       	movw	r24, r28
    11e0:	80 5b       	subi	r24, 0xB0	; 176
						estado = AGUARDACARTAO;
    11e2:	9f 4f       	sbci	r25, 0xFF	; 255
    11e4:	1d d2       	rcall	.+1082   	; 0x1620 <_Z12escreveVetorPci>
    11e6:	81 e0       	ldi	r24, 0x01	; 1
					if(numeroCartaoPos==6){
						numeroCartao[6]='\0';
						escreveVetor("EC",2);
						escreve(7);
						escreveVetor(numeroCartao, 7);
						numeroCartaoPos = 0;
    11e8:	80 93 00 02 	sts	0x0200, r24	; 0x800200 <__DATA_REGION_ORIGIN__>

						telaNova = 1;
						estado = AGUARDACARTAO;
					}
				}else if(novoBotao != (char)-1){
					numeroCartao[numeroCartaoPos]=novoBotao;
    11ec:	83 e0       	ldi	r24, 0x03	; 3
    11ee:	80 93 01 02 	sts	0x0201, r24	; 0x800201 <estado>
    11f2:	71 2c       	mov	r7, r1
    11f4:	36 c1       	rjmp	.+620    	; 0x1462 <__EEPROM_REGION_LENGTH__+0x462>
    11f6:	e0 e5       	ldi	r30, 0x50	; 80
					lcdWritecharPos(novoBotao,numeroCartaoPos,1); //2a linha
    11f8:	f0 e0       	ldi	r31, 0x00	; 0
    11fa:	ec 0f       	add	r30, r28
    11fc:	fd 1f       	adc	r31, r29
    11fe:	e7 0d       	add	r30, r7
					numeroCartaoPos++;
    1200:	f1 1d       	adc	r31, r1
    1202:	80 83       	st	Z, r24
				}
				break;
			case AGUARDACARTAO:
				if(telaNova){
    1204:	41 e0       	ldi	r20, 0x01	; 1
    1206:	67 2d       	mov	r22, r7
    1208:	67 da       	rcall	.-2866   	; 0x6d8 <_Z15lcdWritecharPosccc>
    120a:	73 94       	inc	r7
					clear_display();
    120c:	2a c1       	rjmp	.+596    	; 0x1462 <__EEPROM_REGION_LENGTH__+0x462>
    120e:	80 91 00 02 	lds	r24, 0x0200	; 0x800200 <__DATA_REGION_ORIGIN__>
					lcdWritePos("Espera Resp...", 0 ,0);
    1212:	88 23       	and	r24, r24
    1214:	41 f0       	breq	.+16     	; 0x1226 <__EEPROM_REGION_LENGTH__+0x226>
    1216:	05 da       	rcall	.-3062   	; 0x622 <_Z13clear_displayv>
    1218:	40 e0       	ldi	r20, 0x00	; 0
    121a:	60 e0       	ldi	r22, 0x00	; 0
					telaNova = 0;
    121c:	8e ed       	ldi	r24, 0xDE	; 222
    121e:	92 e0       	ldi	r25, 0x02	; 2
				}
				if(cartaoRepostaNova){
    1220:	4e da       	rcall	.-2916   	; 0x6be <_Z11lcdWritePosPccc>
    1222:	10 92 00 02 	sts	0x0200, r1	; 0x800200 <__DATA_REGION_ORIGIN__>
					cartaoRepostaNova = 0;
					clear_display();
    1226:	66 20       	and	r6, r6
    1228:	09 f4       	brne	.+2      	; 0x122c <__EEPROM_REGION_LENGTH__+0x22c>
					lcdWritePos(cartaoResposta,0,0);
    122a:	1b c1       	rjmp	.+566    	; 0x1462 <__EEPROM_REGION_LENGTH__+0x462>
    122c:	fa d9       	rcall	.-3084   	; 0x622 <_Z13clear_displayv>
    122e:	40 e0       	ldi	r20, 0x00	; 0
    1230:	60 e0       	ldi	r22, 0x00	; 0
    1232:	ce 01       	movw	r24, r28
    1234:	82 5a       	subi	r24, 0xA2	; 162
					atrasoms(1000);
    1236:	9f 4f       	sbci	r25, 0xFF	; 255
    1238:	42 da       	rcall	.-2940   	; 0x6be <_Z11lcdWritePosPccc>
    123a:	88 ee       	ldi	r24, 0xE8	; 232
    123c:	93 e0       	ldi	r25, 0x03	; 3
					telaNova = 1;
    123e:	0e 94 bf 00 	call	0x17e	; 0x17e <_Z8atrasomsj>
    1242:	81 e0       	ldi	r24, 0x01	; 1
					if(!strcmp(cartaoResposta, "Cartao Invalido")){
    1244:	80 93 00 02 	sts	0x0200, r24	; 0x800200 <__DATA_REGION_ORIGIN__>
    1248:	6d ee       	ldi	r22, 0xED	; 237
    124a:	72 e0       	ldi	r23, 0x02	; 2
    124c:	ce 01       	movw	r24, r28
    124e:	82 5a       	subi	r24, 0xA2	; 162
    1250:	9f 4f       	sbci	r25, 0xFF	; 255
    1252:	57 d3       	rcall	.+1710   	; 0x1902 <strcmp>
						estado = ESTADOINICIAL;
    1254:	89 2b       	or	r24, r25
    1256:	21 f4       	brne	.+8      	; 0x1260 <__EEPROM_REGION_LENGTH__+0x260>
					clear_display();
					lcdWritePos("Espera Resp...", 0 ,0);
					telaNova = 0;
				}
				if(cartaoRepostaNova){
					cartaoRepostaNova = 0;
    1258:	10 92 01 02 	sts	0x0201, r1	; 0x800201 <estado>
					if(!strcmp(cartaoResposta, "Cartao Invalido")){
						estado = ESTADOINICIAL;
						telaNova = 1;
					}else{
						numeroSenhaPos = 0;
						estado = SENHA;
    125c:	61 2c       	mov	r6, r1
    125e:	01 c1       	rjmp	.+514    	; 0x1462 <__EEPROM_REGION_LENGTH__+0x462>
					telaNova = 1;
					if(!strcmp(cartaoResposta, "Cartao Invalido")){
						estado = ESTADOINICIAL;
						telaNova = 1;
					}else{
						numeroSenhaPos = 0;
    1260:	82 e0       	ldi	r24, 0x02	; 2
    1262:	80 93 01 02 	sts	0x0201, r24	; 0x800201 <estado>
						telaNova = 1;
					}
				}
				break;
			case SENHA:
				if(telaNova){
    1266:	61 2c       	mov	r6, r1
    1268:	51 2c       	mov	r5, r1
					clear_display();
    126a:	fb c0       	rjmp	.+502    	; 0x1462 <__EEPROM_REGION_LENGTH__+0x462>
    126c:	80 91 00 02 	lds	r24, 0x0200	; 0x800200 <__DATA_REGION_ORIGIN__>
					lcdWritePos(cartaoResposta, 0,0);
    1270:	88 23       	and	r24, r24
    1272:	71 f0       	breq	.+28     	; 0x1290 <__EEPROM_REGION_LENGTH__+0x290>
    1274:	d6 d9       	rcall	.-3156   	; 0x622 <_Z13clear_displayv>
    1276:	40 e0       	ldi	r20, 0x00	; 0
    1278:	60 e0       	ldi	r22, 0x00	; 0
					lcdWritePos("Senha:",0,1);
    127a:	ce 01       	movw	r24, r28
    127c:	82 5a       	subi	r24, 0xA2	; 162
    127e:	9f 4f       	sbci	r25, 0xFF	; 255
    1280:	1e da       	rcall	.-3012   	; 0x6be <_Z11lcdWritePosPccc>
    1282:	41 e0       	ldi	r20, 0x01	; 1
    1284:	60 e0       	ldi	r22, 0x00	; 0
					telaNova  = 0;
    1286:	8d ef       	ldi	r24, 0xFD	; 253
    1288:	92 e0       	ldi	r25, 0x02	; 2
				}
				novoBotao = le_teclado();
    128a:	19 da       	rcall	.-3022   	; 0x6be <_Z11lcdWritePosPccc>
				if(novoBotao == (char)-1){
    128c:	10 92 00 02 	sts	0x0200, r1	; 0x800200 <__DATA_REGION_ORIGIN__>
    1290:	d2 d2       	rcall	.+1444   	; 0x1836 <_Z10le_tecladov>

				}else if(novoBotao == '#'){
    1292:	8f 3f       	cpi	r24, 0xFF	; 255
    1294:	09 f4       	brne	.+2      	; 0x1298 <__EEPROM_REGION_LENGTH__+0x298>
    1296:	e5 c0       	rjmp	.+458    	; 0x1462 <__EEPROM_REGION_LENGTH__+0x462>
					if(numeroSenhaPos==6){
    1298:	83 32       	cpi	r24, 0x23	; 35
    129a:	09 f0       	breq	.+2      	; 0x129e <__EEPROM_REGION_LENGTH__+0x29e>
    129c:	3d c0       	rjmp	.+122    	; 0x1318 <__EEPROM_REGION_LENGTH__+0x318>
						numeroSenha[6]='\0';
    129e:	86 e0       	ldi	r24, 0x06	; 6
    12a0:	58 12       	cpse	r5, r24
						char strpgto[3];
						int valorAguardaResposta = carros[carroSaida].calculaPgto(relogio);
    12a2:	df c0       	rjmp	.+446    	; 0x1462 <__EEPROM_REGION_LENGTH__+0x462>
    12a4:	6e 96       	adiw	r28, 0x1e	; 30
    12a6:	1f ae       	std	Y+63, r1	; 0x3f
    12a8:	6e 97       	sbiw	r28, 0x1e	; 30
    12aa:	27 e1       	ldi	r18, 0x17	; 23
    12ac:	2c 9d       	mul	r18, r12
    12ae:	c0 01       	movw	r24, r0
    12b0:	2d 9d       	mul	r18, r13
    12b2:	90 0d       	add	r25, r0
    12b4:	11 24       	eor	r1, r1
    12b6:	20 91 36 03 	lds	r18, 0x0336	; 0x800336 <__data_end>
    12ba:	30 91 37 03 	lds	r19, 0x0337	; 0x800337 <__data_end+0x1>
    12be:	40 91 38 03 	lds	r20, 0x0338	; 0x800338 <__data_end+0x2>
    12c2:	50 91 39 03 	lds	r21, 0x0339	; 0x800339 <__data_end+0x3>
    12c6:	60 91 3a 03 	lds	r22, 0x033A	; 0x80033a <__data_end+0x4>
    12ca:	85 5c       	subi	r24, 0xC5	; 197
    12cc:	9c 4f       	sbci	r25, 0xFC	; 252
    12ce:	ca d8       	rcall	.-3692   	; 0x464 <_ZN7Veiculo11calculaPgtoE8DataHora>
    12d0:	4a e0       	ldi	r20, 0x0A	; 10
						itoa(valorAguardaResposta,strpgto,10);
						strpgto[2] = '\0';
    12d2:	be 01       	movw	r22, r28
    12d4:	61 54       	subi	r22, 0x41	; 65
    12d6:	7f 4f       	sbci	r23, 0xFF	; 255
    12d8:	1d d3       	rcall	.+1594   	; 0x1914 <__itoa_ncheck>
    12da:	cf 53       	subi	r28, 0x3F	; 63
						escreveVetor("EP", 2);
    12dc:	df 4f       	sbci	r29, 0xFF	; 255
    12de:	18 82       	st	Y, r1
    12e0:	c1 5c       	subi	r28, 0xC1	; 193
    12e2:	d0 40       	sbci	r29, 0x00	; 0
    12e4:	62 e0       	ldi	r22, 0x02	; 2
    12e6:	70 e0       	ldi	r23, 0x00	; 0
						escreve(10);
    12e8:	84 e0       	ldi	r24, 0x04	; 4
    12ea:	93 e0       	ldi	r25, 0x03	; 3
						escreveVetor(numeroSenha,7);
    12ec:	99 d1       	rcall	.+818    	; 0x1620 <_Z12escreveVetorPci>
    12ee:	8a e0       	ldi	r24, 0x0A	; 10
    12f0:	7b d1       	rcall	.+758    	; 0x15e8 <_Z7escrevec>
    12f2:	67 e0       	ldi	r22, 0x07	; 7
    12f4:	70 e0       	ldi	r23, 0x00	; 0
    12f6:	ce 01       	movw	r24, r28
    12f8:	89 5a       	subi	r24, 0xA9	; 169
						escreveVetor(strpgto, 3);
    12fa:	9f 4f       	sbci	r25, 0xFF	; 255
    12fc:	91 d1       	rcall	.+802    	; 0x1620 <_Z12escreveVetorPci>
    12fe:	63 e0       	ldi	r22, 0x03	; 3
    1300:	70 e0       	ldi	r23, 0x00	; 0
    1302:	ce 01       	movw	r24, r28
    1304:	81 54       	subi	r24, 0x41	; 65
						estado=AGUARDASENHA;
    1306:	9f 4f       	sbci	r25, 0xFF	; 255
    1308:	8b d1       	rcall	.+790    	; 0x1620 <_Z12escreveVetorPci>
    130a:	84 e0       	ldi	r24, 0x04	; 4
						telaNova = 1;
    130c:	80 93 01 02 	sts	0x0201, r24	; 0x800201 <estado>
    1310:	81 e0       	ldi	r24, 0x01	; 1
    1312:	80 93 00 02 	sts	0x0200, r24	; 0x800200 <__DATA_REGION_ORIGIN__>
					}
				}else if(novoBotao == '*'){
    1316:	a5 c0       	rjmp	.+330    	; 0x1462 <__EEPROM_REGION_LENGTH__+0x462>
					if(numeroSenhaPos > 0){
    1318:	8a 32       	cpi	r24, 0x2A	; 42
    131a:	99 f4       	brne	.+38     	; 0x1342 <__EEPROM_REGION_LENGTH__+0x342>
    131c:	55 20       	and	r5, r5
						numeroSenhaPos--;
    131e:	09 f4       	brne	.+2      	; 0x1322 <__EEPROM_REGION_LENGTH__+0x322>
						numeroSenha[numeroSenhaPos]='\0';
    1320:	a0 c0       	rjmp	.+320    	; 0x1462 <__EEPROM_REGION_LENGTH__+0x462>
    1322:	1f ef       	ldi	r17, 0xFF	; 255
    1324:	15 0d       	add	r17, r5
    1326:	e7 e5       	ldi	r30, 0x57	; 87
    1328:	f0 e0       	ldi	r31, 0x00	; 0
    132a:	ec 0f       	add	r30, r28
						lcdWritecharPos(' ',numeroSenhaPos+6,1);
    132c:	fd 1f       	adc	r31, r29
    132e:	e1 0f       	add	r30, r17
    1330:	f1 1d       	adc	r31, r1
    1332:	10 82       	st	Z, r1
    1334:	65 e0       	ldi	r22, 0x05	; 5
    1336:	65 0d       	add	r22, r5
						estado=AGUARDASENHA;
						telaNova = 1;
					}
				}else if(novoBotao == '*'){
					if(numeroSenhaPos > 0){
						numeroSenhaPos--;
    1338:	41 e0       	ldi	r20, 0x01	; 1
    133a:	80 e2       	ldi	r24, 0x20	; 32
						numeroSenha[numeroSenhaPos]='\0';
						lcdWritecharPos(' ',numeroSenhaPos+6,1);
					}
				}else if(novoBotao != (char)-1 && numeroSenhaPos < 6){
    133c:	cd d9       	rcall	.-3174   	; 0x6d8 <_Z15lcdWritecharPosccc>
    133e:	51 2e       	mov	r5, r17
    1340:	90 c0       	rjmp	.+288    	; 0x1462 <__EEPROM_REGION_LENGTH__+0x462>
    1342:	95 e0       	ldi	r25, 0x05	; 5
					numeroSenha[numeroSenhaPos]=novoBotao;
    1344:	95 15       	cp	r25, r5
    1346:	08 f4       	brcc	.+2      	; 0x134a <__EEPROM_REGION_LENGTH__+0x34a>
    1348:	8c c0       	rjmp	.+280    	; 0x1462 <__EEPROM_REGION_LENGTH__+0x462>
    134a:	e7 e5       	ldi	r30, 0x57	; 87
    134c:	f0 e0       	ldi	r31, 0x00	; 0
    134e:	ec 0f       	add	r30, r28
    1350:	fd 1f       	adc	r31, r29
					lcdWritecharPos('*',numeroSenhaPos+6,1); //2a linha
    1352:	e5 0d       	add	r30, r5
    1354:	f1 1d       	adc	r31, r1
    1356:	80 83       	st	Z, r24
    1358:	66 e0       	ldi	r22, 0x06	; 6
    135a:	65 0d       	add	r22, r5
    135c:	41 e0       	ldi	r20, 0x01	; 1
					numeroSenhaPos++;
    135e:	8a e2       	ldi	r24, 0x2A	; 42
				}
				break;
			case AGUARDASENHA:
				if(telaNova){
    1360:	bb d9       	rcall	.-3210   	; 0x6d8 <_Z15lcdWritecharPosccc>
    1362:	53 94       	inc	r5
    1364:	7e c0       	rjmp	.+252    	; 0x1462 <__EEPROM_REGION_LENGTH__+0x462>
    1366:	80 91 00 02 	lds	r24, 0x0200	; 0x800200 <__DATA_REGION_ORIGIN__>
					clear_display();
    136a:	88 23       	and	r24, r24
					lcdWritePos("Espera Resp...", 0 ,0);
    136c:	41 f0       	breq	.+16     	; 0x137e <__EEPROM_REGION_LENGTH__+0x37e>
    136e:	59 d9       	rcall	.-3406   	; 0x622 <_Z13clear_displayv>
    1370:	40 e0       	ldi	r20, 0x00	; 0
    1372:	60 e0       	ldi	r22, 0x00	; 0
    1374:	8e ed       	ldi	r24, 0xDE	; 222
    1376:	92 e0       	ldi	r25, 0x02	; 2
					telaNova = 0;
    1378:	a2 d9       	rcall	.-3260   	; 0x6be <_Z11lcdWritePosPccc>
    137a:	10 92 00 02 	sts	0x0200, r1	; 0x800200 <__DATA_REGION_ORIGIN__>
				}
				if(senhaRespostaNova){
    137e:	44 20       	and	r4, r4
    1380:	09 f4       	brne	.+2      	; 0x1384 <__EEPROM_REGION_LENGTH__+0x384>
					senhaRespostaNova = 0;
					clear_display();
    1382:	6f c0       	rjmp	.+222    	; 0x1462 <__EEPROM_REGION_LENGTH__+0x462>
    1384:	4e d9       	rcall	.-3428   	; 0x622 <_Z13clear_displayv>
					lcdWritePos(senhaResposta,0,0);
    1386:	40 e0       	ldi	r20, 0x00	; 0
    1388:	60 e0       	ldi	r22, 0x00	; 0
    138a:	ce 01       	movw	r24, r28
    138c:	82 58       	subi	r24, 0x82	; 130
    138e:	9f 4f       	sbci	r25, 0xFF	; 255
    1390:	96 d9       	rcall	.-3284   	; 0x6be <_Z11lcdWritePosPccc>
    1392:	88 ee       	ldi	r24, 0xE8	; 232
					atrasoms(1000);
    1394:	93 e0       	ldi	r25, 0x03	; 3
    1396:	0e 94 bf 00 	call	0x17e	; 0x17e <_Z8atrasomsj>
    139a:	81 e0       	ldi	r24, 0x01	; 1
					telaNova = 1;
    139c:	80 93 00 02 	sts	0x0200, r24	; 0x800200 <__DATA_REGION_ORIGIN__>
    13a0:	6d ee       	ldi	r22, 0xED	; 237
					senhaRespostaNova=0;
					if(!strcmp(senhaResposta, "Cartao Invalido")){ //se cartão é inválido, vai ESTADO INICIAL
    13a2:	72 e0       	ldi	r23, 0x02	; 2
    13a4:	ce 01       	movw	r24, r28
    13a6:	82 58       	subi	r24, 0x82	; 130
    13a8:	9f 4f       	sbci	r25, 0xFF	; 255
    13aa:	ab d2       	rcall	.+1366   	; 0x1902 <strcmp>
    13ac:	89 2b       	or	r24, r25
    13ae:	21 f4       	brne	.+8      	; 0x13b8 <__EEPROM_REGION_LENGTH__+0x3b8>
    13b0:	10 92 01 02 	sts	0x0201, r1	; 0x800201 <estado>
						estado = ESTADOINICIAL;
    13b4:	41 2c       	mov	r4, r1
    13b6:	55 c0       	rjmp	.+170    	; 0x1462 <__EEPROM_REGION_LENGTH__+0x462>
					senhaRespostaNova = 0;
					clear_display();
					lcdWritePos(senhaResposta,0,0);
					atrasoms(1000);
					telaNova = 1;
					senhaRespostaNova=0;
    13b8:	67 e0       	ldi	r22, 0x07	; 7
    13ba:	73 e0       	ldi	r23, 0x03	; 3
					if(!strcmp(senhaResposta, "Cartao Invalido")){ //se cartão é inválido, vai ESTADO INICIAL
						estado = ESTADOINICIAL;
					}else if(!strcmp(senhaResposta, "OK")){
    13bc:	ce 01       	movw	r24, r28
    13be:	82 58       	subi	r24, 0x82	; 130
    13c0:	9f 4f       	sbci	r25, 0xFF	; 255
    13c2:	9f d2       	rcall	.+1342   	; 0x1902 <strcmp>
    13c4:	89 2b       	or	r24, r25
    13c6:	f1 f4       	brne	.+60     	; 0x1404 <__EEPROM_REGION_LENGTH__+0x404>
    13c8:	27 e1       	ldi	r18, 0x17	; 23
    13ca:	2c 9d       	mul	r18, r12
    13cc:	c0 01       	movw	r24, r0
						carros[carroSaida].pagar(valorAguardaResposta, relogio);
    13ce:	2d 9d       	mul	r18, r13
    13d0:	90 0d       	add	r25, r0
    13d2:	11 24       	eor	r1, r1
    13d4:	00 91 36 03 	lds	r16, 0x0336	; 0x800336 <__data_end>
    13d8:	10 91 37 03 	lds	r17, 0x0337	; 0x800337 <__data_end+0x1>
    13dc:	20 91 38 03 	lds	r18, 0x0338	; 0x800338 <__data_end+0x2>
    13e0:	30 91 39 03 	lds	r19, 0x0339	; 0x800339 <__data_end+0x3>
    13e4:	40 91 3a 03 	lds	r20, 0x033A	; 0x80033a <__data_end+0x4>
    13e8:	60 e0       	ldi	r22, 0x00	; 0
    13ea:	70 e0       	ldi	r23, 0x00	; 0
    13ec:	85 5c       	subi	r24, 0xC5	; 197
    13ee:	9c 4f       	sbci	r25, 0xFC	; 252
    13f0:	a7 d8       	rcall	.-3762   	; 0x540 <_ZN7Veiculo5pagarEi8DataHora>
    13f2:	82 e3       	ldi	r24, 0x32	; 50
    13f4:	c8 d9       	rcall	.-3184   	; 0x786 <_Z11cancelaAbrec>
    13f6:	10 92 01 02 	sts	0x0201, r1	; 0x800201 <estado>
						cancelaAbre('2');
    13fa:	81 e0       	ldi	r24, 0x01	; 1
    13fc:	80 93 00 02 	sts	0x0200, r24	; 0x800200 <__DATA_REGION_ORIGIN__>
						estado = ESTADOINICIAL;
    1400:	41 2c       	mov	r4, r1
    1402:	2f c0       	rjmp	.+94     	; 0x1462 <__EEPROM_REGION_LENGTH__+0x462>
						telaNova = 1;
    1404:	6a e0       	ldi	r22, 0x0A	; 10
    1406:	73 e0       	ldi	r23, 0x03	; 3
    1408:	ce 01       	movw	r24, r28
					senhaRespostaNova = 0;
					clear_display();
					lcdWritePos(senhaResposta,0,0);
					atrasoms(1000);
					telaNova = 1;
					senhaRespostaNova=0;
    140a:	82 58       	subi	r24, 0x82	; 130
    140c:	9f 4f       	sbci	r25, 0xFF	; 255
					}else if(!strcmp(senhaResposta, "OK")){
						carros[carroSaida].pagar(valorAguardaResposta, relogio);
						cancelaAbre('2');
						estado = ESTADOINICIAL;
						telaNova = 1;
					}else if(!strcmp(senhaResposta, "Saldo Invalido")){
    140e:	79 d2       	rcall	.+1266   	; 0x1902 <strcmp>
    1410:	89 2b       	or	r24, r25
    1412:	21 f4       	brne	.+8      	; 0x141c <__EEPROM_REGION_LENGTH__+0x41c>
    1414:	10 92 01 02 	sts	0x0201, r1	; 0x800201 <estado>
    1418:	41 2c       	mov	r4, r1
    141a:	23 c0       	rjmp	.+70     	; 0x1462 <__EEPROM_REGION_LENGTH__+0x462>
    141c:	69 e1       	ldi	r22, 0x19	; 25
    141e:	73 e0       	ldi	r23, 0x03	; 3
						estado = ESTADOINICIAL;
    1420:	ce 01       	movw	r24, r28
    1422:	82 58       	subi	r24, 0x82	; 130
					senhaRespostaNova = 0;
					clear_display();
					lcdWritePos(senhaResposta,0,0);
					atrasoms(1000);
					telaNova = 1;
					senhaRespostaNova=0;
    1424:	9f 4f       	sbci	r25, 0xFF	; 255
    1426:	6d d2       	rcall	.+1242   	; 0x1902 <strcmp>
						estado = ESTADOINICIAL;
						telaNova = 1;
					}else if(!strcmp(senhaResposta, "Saldo Invalido")){
						estado = ESTADOINICIAL;
						telaNova = 1;
					}else if(!strcmp(senhaResposta, "Senha Invalida")){
    1428:	89 2b       	or	r24, r25
    142a:	31 f4       	brne	.+12     	; 0x1438 <__EEPROM_REGION_LENGTH__+0x438>
    142c:	82 e0       	ldi	r24, 0x02	; 2
    142e:	80 93 01 02 	sts	0x0201, r24	; 0x800201 <estado>
    1432:	41 2c       	mov	r4, r1
    1434:	51 2c       	mov	r5, r1
    1436:	15 c0       	rjmp	.+42     	; 0x1462 <__EEPROM_REGION_LENGTH__+0x462>
    1438:	82 e0       	ldi	r24, 0x02	; 2
						numeroSenhaPos = 0;
						estado = SENHA;
    143a:	80 93 01 02 	sts	0x0201, r24	; 0x800201 <estado>
    143e:	41 2c       	mov	r4, r1
					senhaRespostaNova = 0;
					clear_display();
					lcdWritePos(senhaResposta,0,0);
					atrasoms(1000);
					telaNova = 1;
					senhaRespostaNova=0;
    1440:	10 c0       	rjmp	.+32     	; 0x1462 <__EEPROM_REGION_LENGTH__+0x462>
						telaNova = 1;
					}else if(!strcmp(senhaResposta, "Saldo Invalido")){
						estado = ESTADOINICIAL;
						telaNova = 1;
					}else if(!strcmp(senhaResposta, "Senha Invalida")){
						numeroSenhaPos = 0;
    1442:	80 91 00 02 	lds	r24, 0x0200	; 0x800200 <__DATA_REGION_ORIGIN__>
						estado = SENHA;
						telaNova = 1;
					
					}else{
						estado = SENHA;
    1446:	88 23       	and	r24, r24
    1448:	61 f0       	breq	.+24     	; 0x1462 <__EEPROM_REGION_LENGTH__+0x462>
    144a:	eb d8       	rcall	.-3626   	; 0x622 <_Z13clear_displayv>
					senhaRespostaNova = 0;
					clear_display();
					lcdWritePos(senhaResposta,0,0);
					atrasoms(1000);
					telaNova = 1;
					senhaRespostaNova=0;
    144c:	41 e0       	ldi	r20, 0x01	; 1
    144e:	64 e0       	ldi	r22, 0x04	; 4
						telaNova = 1;
					}
				}
				break;
			case BLOQUEADO:
				if(telaNova){
    1450:	88 e2       	ldi	r24, 0x28	; 40
    1452:	93 e0       	ldi	r25, 0x03	; 3
    1454:	34 d9       	rcall	.-3480   	; 0x6be <_Z11lcdWritePosPccc>
    1456:	05 c0       	rjmp	.+10     	; 0x1462 <__EEPROM_REGION_LENGTH__+0x462>
					clear_display();
    1458:	10 92 01 02 	sts	0x0201, r1	; 0x800201 <estado>
					lcdWritePos("Desligado", 4, 1);
    145c:	02 c0       	rjmp	.+4      	; 0x1462 <__EEPROM_REGION_LENGTH__+0x462>
    145e:	10 92 01 02 	sts	0x0201, r1	; 0x800201 <estado>
    1462:	20 91 36 03 	lds	r18, 0x0336	; 0x800336 <__data_end>
    1466:	30 91 37 03 	lds	r19, 0x0337	; 0x800337 <__data_end+0x1>
				}
				break;
			case SAIUENTRADA:
				estado = ESTADOINICIAL;
    146a:	40 91 38 03 	lds	r20, 0x0338	; 0x800338 <__data_end+0x2>
				tempoTMP.setByDataHora(relogio);
				if(tempoTMP.diffSec(relogio)>=5){
					cancelaFecha('1');
					estado = ESTADOINICIAL;
				}		*/ 			
				break;
    146e:	50 91 39 03 	lds	r21, 0x0339	; 0x800339 <__data_end+0x3>
			
			case SAIUSAIDA:
			
				estado = ESTADOINICIAL; 
    1472:	60 91 3a 03 	lds	r22, 0x033A	; 0x80033a <__data_end+0x4>
				}*/
				break;
			
		}//switch(estado)
		
		if(ultEO.diffSec(relogio)>40){
    1476:	ce 01       	movw	r24, r28
    1478:	8b 54       	subi	r24, 0x4B	; 75
    147a:	9f 4f       	sbci	r25, 0xFF	; 255
    147c:	0e 94 3f 01 	call	0x27e	; 0x27e <_ZN8DataHora7diffSecES_>
    1480:	89 97       	sbiw	r24, 0x29	; 41
    1482:	a4 f0       	brlt	.+40     	; 0x14ac <__EEPROM_REGION_LENGTH__+0x4ac>
    1484:	62 e0       	ldi	r22, 0x02	; 2
    1486:	70 e0       	ldi	r23, 0x00	; 0
    1488:	82 e3       	ldi	r24, 0x32	; 50
    148a:	93 e0       	ldi	r25, 0x03	; 3
    148c:	c9 d0       	rcall	.+402    	; 0x1620 <_Z12escreveVetorPci>
    148e:	20 91 36 03 	lds	r18, 0x0336	; 0x800336 <__data_end>
    1492:	30 91 37 03 	lds	r19, 0x0337	; 0x800337 <__data_end+0x1>
			escreveVetor("EO", 2);
    1496:	40 91 38 03 	lds	r20, 0x0338	; 0x800338 <__data_end+0x2>
    149a:	50 91 39 03 	lds	r21, 0x0339	; 0x800339 <__data_end+0x3>
    149e:	60 91 3a 03 	lds	r22, 0x033A	; 0x80033a <__data_end+0x4>
			ultEO.setByDataHora(relogio);
    14a2:	ce 01       	movw	r24, r28
    14a4:	8b 54       	subi	r24, 0x4B	; 75
    14a6:	9f 4f       	sbci	r25, 0xFF	; 255
    14a8:	0e 94 f6 00 	call	0x1ec	; 0x1ec <_ZN8DataHora13setByDataHoraES_>
    14ac:	82 e3       	ldi	r24, 0x32	; 50
    14ae:	90 e0       	ldi	r25, 0x00	; 0
    14b0:	0e 94 bf 00 	call	0x17e	; 0x17e <_Z8atrasomsj>
    14b4:	71 ca       	rjmp	.-2846   	; 0x998 <main+0xe8>
    14b6:	80 91 38 03 	lds	r24, 0x0338	; 0x800338 <__data_end+0x2>
    14ba:	86 30       	cpi	r24, 0x06	; 6
    14bc:	08 f0       	brcs	.+2      	; 0x14c0 <__EEPROM_REGION_LENGTH__+0x4c0>
    14be:	68 cc       	rjmp	.-1840   	; 0xd90 <main+0x4e0>
		}
		atrasoms(50);
    14c0:	76 cc       	rjmp	.-1812   	; 0xdae <main+0x4fe>

000014c2 <_GLOBAL__sub_I_desbloqueado>:
    14c2:	cf 92       	push	r12
    14c4:	df 92       	push	r13
    14c6:	ef 92       	push	r14

	serialSetup();
	lcd_config();
	timer1_config();

    while (1) 
    14c8:	ff 92       	push	r15
		if(!bloqueadoPorHorario && relogio.hora<6){
			bloqueadoPorHorario = 1;
			if(desbloqueado || estado != BLOQUEADO)
				bloqueia();
		}
		if(bloqueadoPorHorario && relogio.hora>=6){
    14ca:	0f 93       	push	r16
    14cc:	cf 93       	push	r28
    14ce:	df 93       	push	r29
    14d0:	00 d0       	rcall	.+0      	; 0x14d2 <_GLOBAL__sub_I_desbloqueado+0x10>
    14d2:	1f 92       	push	r1
    14d4:	1f 92       	push	r1
			}
		}
	}
	contAndar[andar] = cont;
	return cont;
    14d6:	cd b7       	in	r28, 0x3d	; 61
    14d8:	de b7       	in	r29, 0x3e	; 62
    14da:	0f 2e       	mov	r0, r31
    14dc:	fb e3       	ldi	r31, 0x3B	; 59
    14de:	ef 2e       	mov	r14, r31
    14e0:	f3 e0       	ldi	r31, 0x03	; 3
    14e2:	ff 2e       	mov	r15, r31
    14e4:	f0 2d       	mov	r31, r0
    14e6:	0f 2e       	mov	r0, r31
    14e8:	f3 e0       	ldi	r31, 0x03	; 3
    14ea:	cf 2e       	mov	r12, r31
    14ec:	fe e0       	ldi	r31, 0x0E	; 14
    14ee:	df 2e       	mov	r13, r31
    14f0:	f0 2d       	mov	r31, r0
//DataHora relogio;

char telaNova=1;


Veiculo carros[120]; //máximo 120 carros no estacionamento
    14f2:	00 e0       	ldi	r16, 0x00	; 0
    14f4:	20 e0       	ldi	r18, 0x00	; 0
    14f6:	41 e0       	ldi	r20, 0x01	; 1
    14f8:	61 e0       	ldi	r22, 0x01	; 1
    14fa:	ce 01       	movw	r24, r28
    14fc:	01 96       	adiw	r24, 0x01	; 1
    14fe:	0e 94 dd 00 	call	0x1ba	; 0x1ba <_ZN8DataHoraC1Ecccc>
    1502:	29 81       	ldd	r18, Y+1	; 0x01
    1504:	3a 81       	ldd	r19, Y+2	; 0x02
    1506:	4b 81       	ldd	r20, Y+3	; 0x03
    1508:	5c 81       	ldd	r21, Y+4	; 0x04
    150a:	6d 81       	ldd	r22, Y+5	; 0x05
    150c:	c7 01       	movw	r24, r14
    150e:	0e 94 eb 01 	call	0x3d6	; 0x3d6 <_ZN7VeiculoC1E8DataHora>
    1512:	87 e1       	ldi	r24, 0x17	; 23
    1514:	e8 0e       	add	r14, r24
    1516:	f1 1c       	adc	r15, r1
    1518:	ec 14       	cp	r14, r12
    151a:	fd 04       	cpc	r15, r13
    151c:	51 f7       	brne	.-44     	; 0x14f2 <_GLOBAL__sub_I_desbloqueado+0x30>
			}
		}
	}
	contAndar[andar] = cont;
	return cont;
    151e:	0f 90       	pop	r0
    1520:	0f 90       	pop	r0
    1522:	0f 90       	pop	r0
    1524:	0f 90       	pop	r0
    1526:	0f 90       	pop	r0
    1528:	df 91       	pop	r29
    152a:	cf 91       	pop	r28
    152c:	0f 91       	pop	r16
    152e:	ff 90       	pop	r15
    1530:	ef 90       	pop	r14
    1532:	df 90       	pop	r13
    1534:	cf 90       	pop	r12
    1536:	08 95       	ret

00001538 <_Z11serialSetupv>:
char serialRXBuffer[RX_BUFFER_SIZE];
char serialRXPosW = 0;
char serialRXPosR = 0;

void serialSetup(){
	UBRR0L = 51; //registrador de 16 bits divisor clock
    1538:	83 e3       	ldi	r24, 0x33	; 51
    153a:	80 93 c4 00 	sts	0x00C4, r24	; 0x8000c4 <__TEXT_REGION_LENGTH__+0x7c00c4>
	UBRR0H = 0;
    153e:	10 92 c5 00 	sts	0x00C5, r1	; 0x8000c5 <__TEXT_REGION_LENGTH__+0x7c00c5>
	
	UCSR0A = 0;
    1542:	10 92 c0 00 	sts	0x00C0, r1	; 0x8000c0 <__TEXT_REGION_LENGTH__+0x7c00c0>
	UCSR0B = (1<<RXEN0) | (1<<TXEN0) | /*(1<<TXCIE0)*/ (1<<UDRIE0) | (1<<RXCIE0); //ativa rx e tx e ISR de tx e rx
    1546:	88 eb       	ldi	r24, 0xB8	; 184
    1548:	80 93 c1 00 	sts	0x00C1, r24	; 0x8000c1 <__TEXT_REGION_LENGTH__+0x7c00c1>
	sei();
    154c:	78 94       	sei
	UCSR0C = (1<<UCSZ01) | (1<<UCSZ00); //Async, 0 parity, 1 stop bit, 8 bits, rising edge clock
    154e:	86 e0       	ldi	r24, 0x06	; 6
    1550:	80 93 c2 00 	sts	0x00C2, r24	; 0x8000c2 <__TEXT_REGION_LENGTH__+0x7c00c2>
    1554:	08 95       	ret

00001556 <_Z8novoDadov>:
}
char novoDado(){
	char tam = serialRXPosW-serialRXPosR;
	if(tam<0)
		tam += RX_BUFFER_SIZE;
	return tam;
    1556:	80 91 05 0e 	lds	r24, 0x0E05	; 0x800e05 <serialRXPosW>
    155a:	90 91 04 0e 	lds	r25, 0x0E04	; 0x800e04 <serialRXPosR>
}
    155e:	89 1b       	sub	r24, r25
    1560:	08 95       	ret

00001562 <_Z2lev>:

char le(){
	char c;
	if(serialRXPosR != serialRXPosW){
    1562:	90 91 04 0e 	lds	r25, 0x0E04	; 0x800e04 <serialRXPosR>
    1566:	80 91 05 0e 	lds	r24, 0x0E05	; 0x800e05 <serialRXPosW>
    156a:	98 17       	cp	r25, r24
    156c:	71 f0       	breq	.+28     	; 0x158a <_Z2lev+0x28>
		c = serialRXBuffer[serialRXPosR];
    156e:	e9 2f       	mov	r30, r25
    1570:	f0 e0       	ldi	r31, 0x00	; 0
    1572:	ea 5f       	subi	r30, 0xFA	; 250
    1574:	f1 4f       	sbci	r31, 0xF1	; 241
    1576:	80 81       	ld	r24, Z
		serialRXPosR++;
    1578:	9f 5f       	subi	r25, 0xFF	; 255
		if(serialRXPosR >= RX_BUFFER_SIZE)
    157a:	9f 3f       	cpi	r25, 0xFF	; 255
    157c:	19 f0       	breq	.+6      	; 0x1584 <_Z2lev+0x22>

char le(){
	char c;
	if(serialRXPosR != serialRXPosW){
		c = serialRXBuffer[serialRXPosR];
		serialRXPosR++;
    157e:	90 93 04 0e 	sts	0x0E04, r25	; 0x800e04 <serialRXPosR>
    1582:	08 95       	ret
		if(serialRXPosR >= RX_BUFFER_SIZE)
			serialRXPosR = 0;
    1584:	10 92 04 0e 	sts	0x0E04, r1	; 0x800e04 <serialRXPosR>
    1588:	08 95       	ret
	}else{
		atrasoms(1);
    158a:	81 e0       	ldi	r24, 0x01	; 1
    158c:	90 e0       	ldi	r25, 0x00	; 0
    158e:	0e 94 bf 00 	call	0x17e	; 0x17e <_Z8atrasomsj>
		if(serialRXPosR != serialRXPosW){
    1592:	90 91 04 0e 	lds	r25, 0x0E04	; 0x800e04 <serialRXPosR>
    1596:	80 91 05 0e 	lds	r24, 0x0E05	; 0x800e05 <serialRXPosW>
    159a:	98 17       	cp	r25, r24
    159c:	71 f0       	breq	.+28     	; 0x15ba <_Z2lev+0x58>
			c = serialRXBuffer[serialRXPosR];
    159e:	e9 2f       	mov	r30, r25
    15a0:	f0 e0       	ldi	r31, 0x00	; 0
    15a2:	ea 5f       	subi	r30, 0xFA	; 250
    15a4:	f1 4f       	sbci	r31, 0xF1	; 241
    15a6:	80 81       	ld	r24, Z
			serialRXPosR++;
    15a8:	9f 5f       	subi	r25, 0xFF	; 255
			if(serialRXPosR >= RX_BUFFER_SIZE)
    15aa:	9f 3f       	cpi	r25, 0xFF	; 255
    15ac:	19 f0       	breq	.+6      	; 0x15b4 <_Z2lev+0x52>
			serialRXPosR = 0;
	}else{
		atrasoms(1);
		if(serialRXPosR != serialRXPosW){
			c = serialRXBuffer[serialRXPosR];
			serialRXPosR++;
    15ae:	90 93 04 0e 	sts	0x0E04, r25	; 0x800e04 <serialRXPosR>
    15b2:	08 95       	ret
			if(serialRXPosR >= RX_BUFFER_SIZE)
			serialRXPosR = 0;
    15b4:	10 92 04 0e 	sts	0x0E04, r1	; 0x800e04 <serialRXPosR>
    15b8:	08 95       	ret
		}else{
			c = '\0';
    15ba:	80 e0       	ldi	r24, 0x00	; 0
		}
	}
	return c;
}
    15bc:	08 95       	ret

000015be <_Z7leVetorPci>:

/*char le(){
	while(!UCSR0A & (1<<RXC0));
	return UDR0;
}*/
void leVetor(char vetor[], int n){
    15be:	0f 93       	push	r16
    15c0:	1f 93       	push	r17
    15c2:	cf 93       	push	r28
    15c4:	df 93       	push	r29
	for(int i=0; i<n; i++){
    15c6:	16 16       	cp	r1, r22
    15c8:	17 06       	cpc	r1, r23
    15ca:	4c f4       	brge	.+18     	; 0x15de <_Z7leVetorPci+0x20>
    15cc:	8c 01       	movw	r16, r24
    15ce:	ec 01       	movw	r28, r24
    15d0:	06 0f       	add	r16, r22
    15d2:	17 1f       	adc	r17, r23
		vetor[i] = le();
    15d4:	c6 df       	rcall	.-116    	; 0x1562 <_Z2lev>
    15d6:	89 93       	st	Y+, r24
/*char le(){
	while(!UCSR0A & (1<<RXC0));
	return UDR0;
}*/
void leVetor(char vetor[], int n){
	for(int i=0; i<n; i++){
    15d8:	c0 17       	cp	r28, r16
    15da:	d1 07       	cpc	r29, r17
    15dc:	d9 f7       	brne	.-10     	; 0x15d4 <_Z7leVetorPci+0x16>
		vetor[i] = le();
	}
}
    15de:	df 91       	pop	r29
    15e0:	cf 91       	pop	r28
    15e2:	1f 91       	pop	r17
    15e4:	0f 91       	pop	r16
    15e6:	08 95       	ret

000015e8 <_Z7escrevec>:
		}
	}
	return c;
}
void escreve(char c){
	serialTXBuffer[serialTXPosW] = c;
    15e8:	90 91 06 0f 	lds	r25, 0x0F06	; 0x800f06 <serialTXPosW>
    15ec:	e9 2f       	mov	r30, r25
    15ee:	f0 e0       	ldi	r31, 0x00	; 0
    15f0:	e9 5f       	subi	r30, 0xF9	; 249
    15f2:	f0 4f       	sbci	r31, 0xF0	; 240
    15f4:	80 83       	st	Z, r24
	serialTXPosW++;
    15f6:	9f 5f       	subi	r25, 0xFF	; 255
	if(serialTXPosW >= TX_BUFFER_SIZE)
    15f8:	9f 3f       	cpi	r25, 0xFF	; 255
    15fa:	19 f0       	breq	.+6      	; 0x1602 <_Z7escrevec+0x1a>
	}
	return c;
}
void escreve(char c){
	serialTXBuffer[serialTXPosW] = c;
	serialTXPosW++;
    15fc:	90 93 06 0f 	sts	0x0F06, r25	; 0x800f06 <serialTXPosW>
    1600:	02 c0       	rjmp	.+4      	; 0x1606 <_Z7escrevec+0x1e>
	if(serialTXPosW >= TX_BUFFER_SIZE)
		serialTXPosW = 0;
    1602:	10 92 06 0f 	sts	0x0F06, r1	; 0x800f06 <serialTXPosW>
		
	//UDR0 = '\0';
	if( UCSR0A & (1<<UDRE0) ){
    1606:	80 91 c0 00 	lds	r24, 0x00C0	; 0x8000c0 <__TEXT_REGION_LENGTH__+0x7c00c0>
    160a:	85 ff       	sbrs	r24, 5
    160c:	08 c0       	rjmp	.+16     	; 0x161e <_Z7escrevec+0x36>
		UCSR0A &= ~(1<<UDRE0);
    160e:	e0 ec       	ldi	r30, 0xC0	; 192
    1610:	f0 e0       	ldi	r31, 0x00	; 0
    1612:	80 81       	ld	r24, Z
    1614:	8f 7d       	andi	r24, 0xDF	; 223
    1616:	80 83       	st	Z, r24
		UCSR0A |= (1<<UDRE0);
    1618:	80 81       	ld	r24, Z
    161a:	80 62       	ori	r24, 0x20	; 32
    161c:	80 83       	st	Z, r24
    161e:	08 95       	ret

00001620 <_Z12escreveVetorPci>:
}
/*void escreve(char dado){
	while(!UCSR0A & (1<<UDRE0));
	UDR0 = dado;
}*/
void escreveVetor(char dados[], int n){
    1620:	0f 93       	push	r16
    1622:	1f 93       	push	r17
    1624:	cf 93       	push	r28
    1626:	df 93       	push	r29
	for(int i=0; i<n; i++){
    1628:	16 16       	cp	r1, r22
    162a:	17 06       	cpc	r1, r23
    162c:	4c f4       	brge	.+18     	; 0x1640 <_Z12escreveVetorPci+0x20>
    162e:	8c 01       	movw	r16, r24
    1630:	ec 01       	movw	r28, r24
    1632:	06 0f       	add	r16, r22
    1634:	17 1f       	adc	r17, r23
		escreve(dados[i]);
    1636:	89 91       	ld	r24, Y+
    1638:	d7 df       	rcall	.-82     	; 0x15e8 <_Z7escrevec>
/*void escreve(char dado){
	while(!UCSR0A & (1<<UDRE0));
	UDR0 = dado;
}*/
void escreveVetor(char dados[], int n){
	for(int i=0; i<n; i++){
    163a:	c0 17       	cp	r28, r16
    163c:	d1 07       	cpc	r29, r17
    163e:	d9 f7       	brne	.-10     	; 0x1636 <_Z12escreveVetorPci+0x16>
		escreve(dados[i]);
	}
	//UDR0 = '\0';
}
    1640:	df 91       	pop	r29
    1642:	cf 91       	pop	r28
    1644:	1f 91       	pop	r17
    1646:	0f 91       	pop	r16
    1648:	08 95       	ret

0000164a <__vector_26>:
		UCSR0A &= ~(1<<UDRE0);
		UCSR0A |= (1<<UDRE0);
	}
}

ISR(USART0_UDRE_vect){
    164a:	1f 92       	push	r1
    164c:	0f 92       	push	r0
    164e:	0f b6       	in	r0, 0x3f	; 63
    1650:	0f 92       	push	r0
    1652:	11 24       	eor	r1, r1
    1654:	0b b6       	in	r0, 0x3b	; 59
    1656:	0f 92       	push	r0
    1658:	8f 93       	push	r24
    165a:	ef 93       	push	r30
    165c:	ff 93       	push	r31
	if(serialTXPosR != serialTXPosW){
    165e:	e0 91 05 0f 	lds	r30, 0x0F05	; 0x800f05 <serialTXPosR>
    1662:	80 91 06 0f 	lds	r24, 0x0F06	; 0x800f06 <serialTXPosW>
    1666:	e8 17       	cp	r30, r24
    1668:	81 f0       	breq	.+32     	; 0x168a <__vector_26+0x40>
		UDR0 = serialTXBuffer[serialTXPosR];
    166a:	f0 e0       	ldi	r31, 0x00	; 0
    166c:	e9 5f       	subi	r30, 0xF9	; 249
    166e:	f0 4f       	sbci	r31, 0xF0	; 240
    1670:	80 81       	ld	r24, Z
    1672:	80 93 c6 00 	sts	0x00C6, r24	; 0x8000c6 <__TEXT_REGION_LENGTH__+0x7c00c6>
		serialTXPosR++;
    1676:	80 91 05 0f 	lds	r24, 0x0F05	; 0x800f05 <serialTXPosR>
    167a:	8f 5f       	subi	r24, 0xFF	; 255
		if(serialTXPosR >= TX_BUFFER_SIZE){
    167c:	8f 3f       	cpi	r24, 0xFF	; 255
    167e:	19 f0       	breq	.+6      	; 0x1686 <__vector_26+0x3c>
}

ISR(USART0_UDRE_vect){
	if(serialTXPosR != serialTXPosW){
		UDR0 = serialTXBuffer[serialTXPosR];
		serialTXPosR++;
    1680:	80 93 05 0f 	sts	0x0F05, r24	; 0x800f05 <serialTXPosR>
    1684:	02 c0       	rjmp	.+4      	; 0x168a <__vector_26+0x40>
		if(serialTXPosR >= TX_BUFFER_SIZE){
			serialTXPosR = 0;
    1686:	10 92 05 0f 	sts	0x0F05, r1	; 0x800f05 <serialTXPosR>
		}
	}
}
    168a:	ff 91       	pop	r31
    168c:	ef 91       	pop	r30
    168e:	8f 91       	pop	r24
    1690:	0f 90       	pop	r0
    1692:	0b be       	out	0x3b, r0	; 59
    1694:	0f 90       	pop	r0
    1696:	0f be       	out	0x3f, r0	; 63
    1698:	0f 90       	pop	r0
    169a:	1f 90       	pop	r1
    169c:	18 95       	reti

0000169e <__vector_25>:

ISR(USART0_RX_vect){
    169e:	1f 92       	push	r1
    16a0:	0f 92       	push	r0
    16a2:	0f b6       	in	r0, 0x3f	; 63
    16a4:	0f 92       	push	r0
    16a6:	11 24       	eor	r1, r1
    16a8:	0b b6       	in	r0, 0x3b	; 59
    16aa:	0f 92       	push	r0
    16ac:	8f 93       	push	r24
    16ae:	9f 93       	push	r25
    16b0:	ef 93       	push	r30
    16b2:	ff 93       	push	r31
	serialRXBuffer[serialRXPosW] = UDR0;
    16b4:	80 91 05 0e 	lds	r24, 0x0E05	; 0x800e05 <serialRXPosW>
    16b8:	90 91 c6 00 	lds	r25, 0x00C6	; 0x8000c6 <__TEXT_REGION_LENGTH__+0x7c00c6>
    16bc:	e8 2f       	mov	r30, r24
    16be:	f0 e0       	ldi	r31, 0x00	; 0
    16c0:	ea 5f       	subi	r30, 0xFA	; 250
    16c2:	f1 4f       	sbci	r31, 0xF1	; 241
    16c4:	90 83       	st	Z, r25
	serialRXPosW++;
    16c6:	8f 5f       	subi	r24, 0xFF	; 255
	if(serialRXPosW >= RX_BUFFER_SIZE){
    16c8:	8f 3f       	cpi	r24, 0xFF	; 255
    16ca:	19 f0       	breq	.+6      	; 0x16d2 <__vector_25+0x34>
	}
}

ISR(USART0_RX_vect){
	serialRXBuffer[serialRXPosW] = UDR0;
	serialRXPosW++;
    16cc:	80 93 05 0e 	sts	0x0E05, r24	; 0x800e05 <serialRXPosW>
    16d0:	02 c0       	rjmp	.+4      	; 0x16d6 <__vector_25+0x38>
	if(serialRXPosW >= RX_BUFFER_SIZE){
		serialRXPosW = 0;
    16d2:	10 92 05 0e 	sts	0x0E05, r1	; 0x800e05 <serialRXPosW>
	}
}
    16d6:	ff 91       	pop	r31
    16d8:	ef 91       	pop	r30
    16da:	9f 91       	pop	r25
    16dc:	8f 91       	pop	r24
    16de:	0f 90       	pop	r0
    16e0:	0b be       	out	0x3b, r0	; 59
    16e2:	0f 90       	pop	r0
    16e4:	0f be       	out	0x3f, r0	; 63
    16e6:	0f 90       	pop	r0
    16e8:	1f 90       	pop	r1
    16ea:	18 95       	reti

000016ec <_Z8le_linhav>:

char le_linha(){ // retorna linha precionada, -1 se todas desativadas
	
	
	char valor_atual=-1;
	if(!(LINHA0_MASK & LINHA_PIN)) //verifica valor atual (0->BOTAO ATIVO)
    16ec:	e0 e0       	ldi	r30, 0x00	; 0
    16ee:	f1 e0       	ldi	r31, 0x01	; 1
    16f0:	80 81       	ld	r24, Z
		valor_atual=0;
	
	if(!(LINHA1_MASK & LINHA_PIN))
    16f2:	90 81       	ld	r25, Z
    16f4:	94 ff       	sbrs	r25, 4
    16f6:	05 c0       	rjmp	.+10     	; 0x1702 <_Z8le_linhav+0x16>

char le_linha(){ // retorna linha precionada, -1 se todas desativadas
	
	
	char valor_atual=-1;
	if(!(LINHA0_MASK & LINHA_PIN)) //verifica valor atual (0->BOTAO ATIVO)
    16f8:	83 fb       	bst	r24, 3
    16fa:	88 27       	eor	r24, r24
    16fc:	80 f9       	bld	r24, 0
    16fe:	81 95       	neg	r24
    1700:	01 c0       	rjmp	.+2      	; 0x1704 <_Z8le_linhav+0x18>
		valor_atual=0;
	
	if(!(LINHA1_MASK & LINHA_PIN))
		valor_atual=1;
    1702:	81 e0       	ldi	r24, 0x01	; 1
	
	if(!(LINHA2_MASK & LINHA_PIN))
    1704:	90 91 00 01 	lds	r25, 0x0100	; 0x800100 <__TEXT_REGION_LENGTH__+0x7c0100>
    1708:	95 ff       	sbrs	r25, 5
	valor_atual=2;
    170a:	82 e0       	ldi	r24, 0x02	; 2
	
	if(!(LINHA3_MASK & LINHA_PIN))
    170c:	90 91 00 01 	lds	r25, 0x0100	; 0x800100 <__TEXT_REGION_LENGTH__+0x7c0100>
    1710:	96 ff       	sbrs	r25, 6
	valor_atual=3;
    1712:	83 e0       	ldi	r24, 0x03	; 3
	return valor_atual;
	
	
	
	
}
    1714:	08 95       	ret

00001716 <_Z11solta_teclac>:
void solta_tecla(char valor_anterior){
    1716:	ff 92       	push	r15
    1718:	0f 93       	push	r16
    171a:	1f 93       	push	r17
    171c:	cf 93       	push	r28
    171e:	df 93       	push	r29
    1720:	08 2f       	mov	r16, r24
	char contador_2=0;
	char contador=0;
    1722:	c0 e0       	ldi	r28, 0x00	; 0
	
	
	
}
void solta_tecla(char valor_anterior){
	char contador_2=0;
    1724:	10 e0       	ldi	r17, 0x00	; 0
	while(flag){
		if(le_linha()!=valor_anterior)
			contador++;
		else
			contador=0;	
		if((contador>=(char)10)|(contador_2>=(char)100))
    1726:	d1 e0       	ldi	r29, 0x01	; 1
    1728:	f1 2c       	mov	r15, r1
void solta_tecla(char valor_anterior){
	char contador_2=0;
	char contador=0;
	char flag=1;
	while(flag){
		if(le_linha()!=valor_anterior)
    172a:	e0 df       	rcall	.-64     	; 0x16ec <_Z8le_linhav>
    172c:	80 17       	cp	r24, r16
    172e:	11 f0       	breq	.+4      	; 0x1734 <_Z11solta_teclac+0x1e>
			contador++;
    1730:	cf 5f       	subi	r28, 0xFF	; 255
    1732:	01 c0       	rjmp	.+2      	; 0x1736 <_Z11solta_teclac+0x20>
		else
			contador=0;	
    1734:	c0 e0       	ldi	r28, 0x00	; 0
		if((contador>=(char)10)|(contador_2>=(char)100))
    1736:	8d 2f       	mov	r24, r29
    1738:	ca 30       	cpi	r28, 0x0A	; 10
    173a:	08 f4       	brcc	.+2      	; 0x173e <_Z11solta_teclac+0x28>
    173c:	8f 2d       	mov	r24, r15
    173e:	81 11       	cpse	r24, r1
    1740:	0c c0       	rjmp	.+24     	; 0x175a <_Z11solta_teclac+0x44>
    1742:	8d 2f       	mov	r24, r29
    1744:	14 36       	cpi	r17, 0x64	; 100
    1746:	08 f4       	brcc	.+2      	; 0x174a <_Z11solta_teclac+0x34>
    1748:	8f 2d       	mov	r24, r15
    174a:	81 11       	cpse	r24, r1
    174c:	06 c0       	rjmp	.+12     	; 0x175a <_Z11solta_teclac+0x44>
			flag=0;
		
		contador_2++;
    174e:	1f 5f       	subi	r17, 0xFF	; 255
		atrasoms(10);
    1750:	8a e0       	ldi	r24, 0x0A	; 10
    1752:	90 e0       	ldi	r25, 0x00	; 0
    1754:	0e 94 bf 00 	call	0x17e	; 0x17e <_Z8atrasomsj>
    1758:	e8 cf       	rjmp	.-48     	; 0x172a <_Z11solta_teclac+0x14>
    175a:	8a e0       	ldi	r24, 0x0A	; 10
    175c:	90 e0       	ldi	r25, 0x00	; 0
    175e:	0e 94 bf 00 	call	0x17e	; 0x17e <_Z8atrasomsj>
	}
}
    1762:	df 91       	pop	r29
    1764:	cf 91       	pop	r28
    1766:	1f 91       	pop	r17
    1768:	0f 91       	pop	r16
    176a:	ff 90       	pop	r15
    176c:	08 95       	ret

0000176e <_Z14debounce_linhav>:
char debounce_linha(void){ //retorna linha pós debounce
    176e:	cf 93       	push	r28
    1770:	df 93       	push	r29
	char contador=0;
	char valor_atual;
	char valor_anterior;
	
	valor_anterior=le_linha();
    1772:	bc df       	rcall	.-136    	; 0x16ec <_Z8le_linhav>
    1774:	d8 2f       	mov	r29, r24

	if(valor_anterior!=(char)-1){
    1776:	8f 3f       	cpi	r24, 0xFF	; 255
    1778:	79 f0       	breq	.+30     	; 0x1798 <_Z14debounce_linhav+0x2a>
		do{
			valor_atual=le_linha();
    177a:	ca e0       	ldi	r28, 0x0A	; 10
    177c:	b7 df       	rcall	.-146    	; 0x16ec <_Z8le_linhav>
			if(valor_atual!=valor_anterior)
    177e:	d8 13       	cpse	r29, r24
    1780:	0d c0       	rjmp	.+26     	; 0x179c <_Z14debounce_linhav+0x2e>
    1782:	c1 50       	subi	r28, 0x01	; 1
			if(valor_atual==valor_anterior)
				contador++;								
			
			if(contador>=(char)10){
				
				solta_tecla(valor_atual); // fica preso na funçao até trocar de tecla ou solta-la				
    1784:	21 f4       	brne	.+8      	; 0x178e <_Z14debounce_linhav+0x20>
    1786:	8d 2f       	mov	r24, r29
    1788:	c6 df       	rcall	.-116    	; 0x1716 <_Z11solta_teclac>
				return valor_atual;
    178a:	8d 2f       	mov	r24, r29
    178c:	08 c0       	rjmp	.+16     	; 0x179e <_Z14debounce_linhav+0x30>
			}
			atrasoms(10);
    178e:	8a e0       	ldi	r24, 0x0A	; 10
    1790:	90 e0       	ldi	r25, 0x00	; 0
    1792:	0e 94 bf 00 	call	0x17e	; 0x17e <_Z8atrasomsj>
	char valor_anterior;
	
	valor_anterior=le_linha();

	if(valor_anterior!=(char)-1){
		do{
    1796:	f2 cf       	rjmp	.-28     	; 0x177c <_Z14debounce_linhav+0xe>
			
			
		}while(1);
	}
	
	return -1;
    1798:	8f ef       	ldi	r24, 0xFF	; 255
    179a:	01 c0       	rjmp	.+2      	; 0x179e <_Z14debounce_linhav+0x30>

	if(valor_anterior!=(char)-1){
		do{
			valor_atual=le_linha();
			if(valor_atual!=valor_anterior)
				return -1;
    179c:	8f ef       	ldi	r24, 0xFF	; 255
		}while(1);
	}
	
	return -1;
	
}
    179e:	df 91       	pop	r29
    17a0:	cf 91       	pop	r28
    17a2:	08 95       	ret

000017a4 <_Z16converte_leituracc>:
char converte_leitura(char linha, char coluna){
	//converte linha coluna para o equivalente do teclado
	
	char leitura;
	switch(linha){
    17a4:	81 30       	cpi	r24, 0x01	; 1
    17a6:	b1 f0       	breq	.+44     	; 0x17d4 <_Z16converte_leituracc+0x30>
    17a8:	28 f0       	brcs	.+10     	; 0x17b4 <_Z16converte_leituracc+0x10>
    17aa:	82 30       	cpi	r24, 0x02	; 2
    17ac:	19 f1       	breq	.+70     	; 0x17f4 <_Z16converte_leituracc+0x50>
    17ae:	83 30       	cpi	r24, 0x03	; 3
    17b0:	89 f1       	breq	.+98     	; 0x1814 <_Z16converte_leituracc+0x70>
    17b2:	3f c0       	rjmp	.+126    	; 0x1832 <_Z16converte_leituracc+0x8e>
		
		case 0:
		switch(coluna){
    17b4:	61 30       	cpi	r22, 0x01	; 1
    17b6:	41 f0       	breq	.+16     	; 0x17c8 <_Z16converte_leituracc+0x24>
    17b8:	28 f0       	brcs	.+10     	; 0x17c4 <_Z16converte_leituracc+0x20>
    17ba:	62 30       	cpi	r22, 0x02	; 2
    17bc:	39 f0       	breq	.+14     	; 0x17cc <_Z16converte_leituracc+0x28>
    17be:	63 30       	cpi	r22, 0x03	; 3
    17c0:	39 f0       	breq	.+14     	; 0x17d0 <_Z16converte_leituracc+0x2c>
    17c2:	37 c0       	rjmp	.+110    	; 0x1832 <_Z16converte_leituracc+0x8e>
			case 0:
			leitura='1';
    17c4:	91 e3       	ldi	r25, 0x31	; 49
    17c6:	35 c0       	rjmp	.+106    	; 0x1832 <_Z16converte_leituracc+0x8e>
			break;
			
			case 1:
			leitura='2';
    17c8:	92 e3       	ldi	r25, 0x32	; 50
			break;
    17ca:	33 c0       	rjmp	.+102    	; 0x1832 <_Z16converte_leituracc+0x8e>
			
			case 2:
			leitura='3';
    17cc:	93 e3       	ldi	r25, 0x33	; 51
			
			break;
    17ce:	31 c0       	rjmp	.+98     	; 0x1832 <_Z16converte_leituracc+0x8e>
			case 3:
			leitura='A';
    17d0:	91 e4       	ldi	r25, 0x41	; 65
			break;
    17d2:	2f c0       	rjmp	.+94     	; 0x1832 <_Z16converte_leituracc+0x8e>
		}
		
		break;
		case 1:
		switch(coluna){
    17d4:	61 30       	cpi	r22, 0x01	; 1
    17d6:	41 f0       	breq	.+16     	; 0x17e8 <_Z16converte_leituracc+0x44>
    17d8:	28 f0       	brcs	.+10     	; 0x17e4 <_Z16converte_leituracc+0x40>
    17da:	62 30       	cpi	r22, 0x02	; 2
    17dc:	39 f0       	breq	.+14     	; 0x17ec <_Z16converte_leituracc+0x48>
    17de:	63 30       	cpi	r22, 0x03	; 3
    17e0:	39 f0       	breq	.+14     	; 0x17f0 <_Z16converte_leituracc+0x4c>
    17e2:	27 c0       	rjmp	.+78     	; 0x1832 <_Z16converte_leituracc+0x8e>
			case 0:
			leitura='4';
    17e4:	94 e3       	ldi	r25, 0x34	; 52
    17e6:	25 c0       	rjmp	.+74     	; 0x1832 <_Z16converte_leituracc+0x8e>
			break;
			case 1:
			leitura='5';
    17e8:	95 e3       	ldi	r25, 0x35	; 53
			break;
    17ea:	23 c0       	rjmp	.+70     	; 0x1832 <_Z16converte_leituracc+0x8e>
			case 2:
			leitura='6';
    17ec:	96 e3       	ldi	r25, 0x36	; 54
			break;
    17ee:	21 c0       	rjmp	.+66     	; 0x1832 <_Z16converte_leituracc+0x8e>
			case 3:
			leitura='B';
    17f0:	92 e4       	ldi	r25, 0x42	; 66
			break;
    17f2:	1f c0       	rjmp	.+62     	; 0x1832 <_Z16converte_leituracc+0x8e>
		}
		
		break;
		case 2:
		switch(coluna){
    17f4:	61 30       	cpi	r22, 0x01	; 1
    17f6:	41 f0       	breq	.+16     	; 0x1808 <_Z16converte_leituracc+0x64>
    17f8:	28 f0       	brcs	.+10     	; 0x1804 <_Z16converte_leituracc+0x60>
    17fa:	62 30       	cpi	r22, 0x02	; 2
    17fc:	39 f0       	breq	.+14     	; 0x180c <_Z16converte_leituracc+0x68>
    17fe:	63 30       	cpi	r22, 0x03	; 3
    1800:	39 f0       	breq	.+14     	; 0x1810 <_Z16converte_leituracc+0x6c>
    1802:	17 c0       	rjmp	.+46     	; 0x1832 <_Z16converte_leituracc+0x8e>
			case 0:
			leitura='7';
    1804:	97 e3       	ldi	r25, 0x37	; 55
    1806:	15 c0       	rjmp	.+42     	; 0x1832 <_Z16converte_leituracc+0x8e>
			break;
			case 1:
			leitura='8';
    1808:	98 e3       	ldi	r25, 0x38	; 56
			break;
    180a:	13 c0       	rjmp	.+38     	; 0x1832 <_Z16converte_leituracc+0x8e>
			case 2:
			leitura='9';
    180c:	99 e3       	ldi	r25, 0x39	; 57
			break;
    180e:	11 c0       	rjmp	.+34     	; 0x1832 <_Z16converte_leituracc+0x8e>
			case 3:
			leitura='C';
    1810:	93 e4       	ldi	r25, 0x43	; 67
			break;
    1812:	0f c0       	rjmp	.+30     	; 0x1832 <_Z16converte_leituracc+0x8e>
		}
		break;
		case 3:
		switch(coluna){
    1814:	61 30       	cpi	r22, 0x01	; 1
    1816:	41 f0       	breq	.+16     	; 0x1828 <_Z16converte_leituracc+0x84>
    1818:	28 f0       	brcs	.+10     	; 0x1824 <_Z16converte_leituracc+0x80>
    181a:	62 30       	cpi	r22, 0x02	; 2
    181c:	39 f0       	breq	.+14     	; 0x182c <_Z16converte_leituracc+0x88>
    181e:	63 30       	cpi	r22, 0x03	; 3
    1820:	39 f0       	breq	.+14     	; 0x1830 <_Z16converte_leituracc+0x8c>
    1822:	07 c0       	rjmp	.+14     	; 0x1832 <_Z16converte_leituracc+0x8e>
			case 0:
			leitura='*';
    1824:	9a e2       	ldi	r25, 0x2A	; 42
    1826:	05 c0       	rjmp	.+10     	; 0x1832 <_Z16converte_leituracc+0x8e>
			break;
			case 1:
			leitura='0';
    1828:	90 e3       	ldi	r25, 0x30	; 48
			break;
    182a:	03 c0       	rjmp	.+6      	; 0x1832 <_Z16converte_leituracc+0x8e>
			case 2:
			leitura='#';
    182c:	93 e2       	ldi	r25, 0x23	; 35
			break;
    182e:	01 c0       	rjmp	.+2      	; 0x1832 <_Z16converte_leituracc+0x8e>
			case 3:
			leitura='D';
    1830:	94 e4       	ldi	r25, 0x44	; 68
		
		
		
	}
	return leitura;
}
    1832:	89 2f       	mov	r24, r25
    1834:	08 95       	ret

00001836 <_Z10le_tecladov>:
	
	char leitura;
	char coluna;
	char linha;
	char i;
	LINHA_DDR  &=~((LINHA0_MASK)|(LINHA1_MASK)|(LINHA2_MASK)|(LINHA3_MASK)); // linhas como entrada
    1836:	e1 e0       	ldi	r30, 0x01	; 1
    1838:	f1 e0       	ldi	r31, 0x01	; 1
    183a:	80 81       	ld	r24, Z
    183c:	87 78       	andi	r24, 0x87	; 135
    183e:	80 83       	st	Z, r24
	LINHA_PORT |= (LINHA0_MASK)|(LINHA1_MASK)|(LINHA2_MASK)|(LINHA3_MASK); // pullup Linhas
    1840:	e2 e0       	ldi	r30, 0x02	; 2
    1842:	f1 e0       	ldi	r31, 0x01	; 1
    1844:	80 81       	ld	r24, Z
    1846:	88 67       	ori	r24, 0x78	; 120
    1848:	80 83       	st	Z, r24
	
	COLUNA_DDR |=((COLUNA0_MASK)|(COLUNA1_MASK)|(COLUNA2_MASK)|(COLUNA3_MASK));//coluas como saida
    184a:	84 b1       	in	r24, 0x04	; 4
    184c:	8f 60       	ori	r24, 0x0F	; 15
    184e:	84 b9       	out	0x04, r24	; 4
	
	

		coluna=0;
		COlUNA_PORT &=~ COLUNA0_MASK;
    1850:	28 98       	cbi	0x05, 0	; 5
		COlUNA_PORT |= (COLUNA1_MASK|COLUNA2_MASK|COLUNA3_MASK);
    1852:	85 b1       	in	r24, 0x05	; 5
    1854:	8e 60       	ori	r24, 0x0E	; 14
    1856:	85 b9       	out	0x05, r24	; 5
		linha=debounce_linha();
    1858:	8a df       	rcall	.-236    	; 0x176e <_Z14debounce_linhav>
		
		if(linha!=(char)-1){
    185a:	8f 3f       	cpi	r24, 0xFF	; 255
    185c:	19 f0       	breq	.+6      	; 0x1864 <_Z10le_tecladov+0x2e>
			leitura = converte_leitura(linha,coluna);
    185e:	60 e0       	ldi	r22, 0x00	; 0
    1860:	a1 cf       	rjmp	.-190    	; 0x17a4 <_Z16converte_leituracc>
			return leitura;
    1862:	08 95       	ret
		}
		coluna=1;
		COlUNA_PORT &=~ COLUNA1_MASK;
    1864:	29 98       	cbi	0x05, 1	; 5
		COlUNA_PORT |= (COLUNA0_MASK|COLUNA2_MASK|COLUNA3_MASK);
    1866:	85 b1       	in	r24, 0x05	; 5
    1868:	8d 60       	ori	r24, 0x0D	; 13
		linha=debounce_linha();
    186a:	85 b9       	out	0x05, r24	; 5
    186c:	80 df       	rcall	.-256    	; 0x176e <_Z14debounce_linhav>
		
		if(linha!=(char)-1){
    186e:	8f 3f       	cpi	r24, 0xFF	; 255
			leitura=converte_leitura(linha,coluna);
    1870:	19 f0       	breq	.+6      	; 0x1878 <_Z10le_tecladov+0x42>
    1872:	61 e0       	ldi	r22, 0x01	; 1
    1874:	97 cf       	rjmp	.-210    	; 0x17a4 <_Z16converte_leituracc>
			return leitura;
    1876:	08 95       	ret
		}
		coluna=2;
		COlUNA_PORT &=~ COLUNA2_MASK;
		COlUNA_PORT |= (COLUNA1_MASK|COLUNA0_MASK|COLUNA3_MASK);
    1878:	2a 98       	cbi	0x05, 2	; 5
    187a:	85 b1       	in	r24, 0x05	; 5
    187c:	8b 60       	ori	r24, 0x0B	; 11
		linha=debounce_linha();
    187e:	85 b9       	out	0x05, r24	; 5
		
		if(linha!=(char)-1){
    1880:	76 df       	rcall	.-276    	; 0x176e <_Z14debounce_linhav>
    1882:	8f 3f       	cpi	r24, 0xFF	; 255
			leitura = converte_leitura(linha,coluna);
    1884:	19 f0       	breq	.+6      	; 0x188c <_Z10le_tecladov+0x56>
    1886:	62 e0       	ldi	r22, 0x02	; 2
			return leitura;
    1888:	8d cf       	rjmp	.-230    	; 0x17a4 <_Z16converte_leituracc>
		}
		coluna=3;
		COlUNA_PORT &=~ COLUNA3_MASK;
    188a:	08 95       	ret
		COlUNA_PORT |= (COLUNA1_MASK|COLUNA2_MASK|COLUNA0_MASK);
    188c:	2b 98       	cbi	0x05, 3	; 5
    188e:	85 b1       	in	r24, 0x05	; 5
		linha = debounce_linha();
    1890:	87 60       	ori	r24, 0x07	; 7
    1892:	85 b9       	out	0x05, r24	; 5
		
		if(linha!=(char)-1){
    1894:	6c df       	rcall	.-296    	; 0x176e <_Z14debounce_linhav>
    1896:	8f 3f       	cpi	r24, 0xFF	; 255
			leitura = converte_leitura(linha,coluna);
    1898:	19 f0       	breq	.+6      	; 0x18a0 <_Z10le_tecladov+0x6a>
    189a:	63 e0       	ldi	r22, 0x03	; 3
    189c:	83 cf       	rjmp	.-250    	; 0x17a4 <_Z16converte_leituracc>
			return leitura;
    189e:	08 95       	ret
		}
		
		
	return -1;
    18a0:	8f ef       	ldi	r24, 0xFF	; 255
}
    18a2:	08 95       	ret

000018a4 <__divmodhi4>:
    18a4:	97 fb       	bst	r25, 7
    18a6:	07 2e       	mov	r0, r23
    18a8:	16 f4       	brtc	.+4      	; 0x18ae <__divmodhi4+0xa>
    18aa:	00 94       	com	r0
    18ac:	06 d0       	rcall	.+12     	; 0x18ba <__divmodhi4_neg1>
    18ae:	77 fd       	sbrc	r23, 7
    18b0:	08 d0       	rcall	.+16     	; 0x18c2 <__divmodhi4_neg2>
    18b2:	13 d0       	rcall	.+38     	; 0x18da <__udivmodhi4>
    18b4:	07 fc       	sbrc	r0, 7
    18b6:	05 d0       	rcall	.+10     	; 0x18c2 <__divmodhi4_neg2>
    18b8:	3e f4       	brtc	.+14     	; 0x18c8 <__divmodhi4_exit>

000018ba <__divmodhi4_neg1>:
    18ba:	90 95       	com	r25
    18bc:	81 95       	neg	r24
    18be:	9f 4f       	sbci	r25, 0xFF	; 255
    18c0:	08 95       	ret

000018c2 <__divmodhi4_neg2>:
    18c2:	70 95       	com	r23
    18c4:	61 95       	neg	r22
    18c6:	7f 4f       	sbci	r23, 0xFF	; 255

000018c8 <__divmodhi4_exit>:
    18c8:	08 95       	ret

000018ca <__tablejump2__>:
    18ca:	ee 0f       	add	r30, r30
    18cc:	ff 1f       	adc	r31, r31
    18ce:	88 1f       	adc	r24, r24
    18d0:	8b bf       	out	0x3b, r24	; 59
    18d2:	07 90       	elpm	r0, Z+
    18d4:	f6 91       	elpm	r31, Z
    18d6:	e0 2d       	mov	r30, r0
    18d8:	19 94       	eijmp

000018da <__udivmodhi4>:
    18da:	aa 1b       	sub	r26, r26
    18dc:	bb 1b       	sub	r27, r27
    18de:	51 e1       	ldi	r21, 0x11	; 17
    18e0:	07 c0       	rjmp	.+14     	; 0x18f0 <__udivmodhi4_ep>

000018e2 <__udivmodhi4_loop>:
    18e2:	aa 1f       	adc	r26, r26
    18e4:	bb 1f       	adc	r27, r27
    18e6:	a6 17       	cp	r26, r22
    18e8:	b7 07       	cpc	r27, r23
    18ea:	10 f0       	brcs	.+4      	; 0x18f0 <__udivmodhi4_ep>
    18ec:	a6 1b       	sub	r26, r22
    18ee:	b7 0b       	sbc	r27, r23

000018f0 <__udivmodhi4_ep>:
    18f0:	88 1f       	adc	r24, r24
    18f2:	99 1f       	adc	r25, r25
    18f4:	5a 95       	dec	r21
    18f6:	a9 f7       	brne	.-22     	; 0x18e2 <__udivmodhi4_loop>
    18f8:	80 95       	com	r24
    18fa:	90 95       	com	r25
    18fc:	bc 01       	movw	r22, r24
    18fe:	cd 01       	movw	r24, r26
    1900:	08 95       	ret

00001902 <strcmp>:
    1902:	fb 01       	movw	r30, r22
    1904:	dc 01       	movw	r26, r24
    1906:	8d 91       	ld	r24, X+
    1908:	01 90       	ld	r0, Z+
    190a:	80 19       	sub	r24, r0
    190c:	01 10       	cpse	r0, r1
    190e:	d9 f3       	breq	.-10     	; 0x1906 <strcmp+0x4>
    1910:	99 0b       	sbc	r25, r25
    1912:	08 95       	ret

00001914 <__itoa_ncheck>:
    1914:	bb 27       	eor	r27, r27
    1916:	4a 30       	cpi	r20, 0x0A	; 10
    1918:	31 f4       	brne	.+12     	; 0x1926 <__itoa_ncheck+0x12>
    191a:	99 23       	and	r25, r25
    191c:	22 f4       	brpl	.+8      	; 0x1926 <__itoa_ncheck+0x12>
    191e:	bd e2       	ldi	r27, 0x2D	; 45
    1920:	90 95       	com	r25
    1922:	81 95       	neg	r24
    1924:	9f 4f       	sbci	r25, 0xFF	; 255
    1926:	01 c0       	rjmp	.+2      	; 0x192a <__utoa_common>

00001928 <__utoa_ncheck>:
    1928:	bb 27       	eor	r27, r27

0000192a <__utoa_common>:
    192a:	fb 01       	movw	r30, r22
    192c:	55 27       	eor	r21, r21
    192e:	aa 27       	eor	r26, r26
    1930:	88 0f       	add	r24, r24
    1932:	99 1f       	adc	r25, r25
    1934:	aa 1f       	adc	r26, r26
    1936:	a4 17       	cp	r26, r20
    1938:	10 f0       	brcs	.+4      	; 0x193e <__utoa_common+0x14>
    193a:	a4 1b       	sub	r26, r20
    193c:	83 95       	inc	r24
    193e:	50 51       	subi	r21, 0x10	; 16
    1940:	b9 f7       	brne	.-18     	; 0x1930 <__utoa_common+0x6>
    1942:	a0 5d       	subi	r26, 0xD0	; 208
    1944:	aa 33       	cpi	r26, 0x3A	; 58
    1946:	08 f0       	brcs	.+2      	; 0x194a <__utoa_common+0x20>
    1948:	a9 5d       	subi	r26, 0xD9	; 217
    194a:	a1 93       	st	Z+, r26
    194c:	00 97       	sbiw	r24, 0x00	; 0
    194e:	79 f7       	brne	.-34     	; 0x192e <__utoa_common+0x4>
    1950:	b1 11       	cpse	r27, r1
    1952:	b1 93       	st	Z+, r27
    1954:	11 92       	st	Z+, r1
    1956:	cb 01       	movw	r24, r22
    1958:	00 c0       	rjmp	.+0      	; 0x195a <strrev>

0000195a <strrev>:
    195a:	dc 01       	movw	r26, r24
    195c:	fc 01       	movw	r30, r24
    195e:	67 2f       	mov	r22, r23
    1960:	71 91       	ld	r23, Z+
    1962:	77 23       	and	r23, r23
    1964:	e1 f7       	brne	.-8      	; 0x195e <strrev+0x4>
    1966:	32 97       	sbiw	r30, 0x02	; 2
    1968:	04 c0       	rjmp	.+8      	; 0x1972 <strrev+0x18>
    196a:	7c 91       	ld	r23, X
    196c:	6d 93       	st	X+, r22
    196e:	70 83       	st	Z, r23
    1970:	62 91       	ld	r22, -Z
    1972:	ae 17       	cp	r26, r30
    1974:	bf 07       	cpc	r27, r31
    1976:	c8 f3       	brcs	.-14     	; 0x196a <strrev+0x10>
    1978:	08 95       	ret

0000197a <_exit>:
    197a:	f8 94       	cli

0000197c <__stop_program>:
    197c:	ff cf       	rjmp	.-2      	; 0x197c <__stop_program>
