
AVREstacionaMicros.elf:     file format elf32-avr

Sections:
Idx Name          Size      VMA       LMA       File off  Algn
  0 .data         0000012e  00800200  000019be  00001a52  2**0
                  CONTENTS, ALLOC, LOAD, DATA
  1 .text         000019be  00000000  00000000  00000094  2**1
                  CONTENTS, ALLOC, LOAD, READONLY, CODE
  2 .bss          00000cd0  0080032e  0080032e  00001b80  2**0
                  ALLOC
  3 .comment      00000030  00000000  00000000  00001b80  2**0
                  CONTENTS, READONLY
  4 .note.gnu.avr.deviceinfo 00000040  00000000  00000000  00001bb0  2**2
                  CONTENTS, READONLY
  5 .debug_aranges 00000258  00000000  00000000  00001bf0  2**0
                  CONTENTS, READONLY, DEBUGGING
  6 .debug_info   00004228  00000000  00000000  00001e48  2**0
                  CONTENTS, READONLY, DEBUGGING
  7 .debug_abbrev 0000167d  00000000  00000000  00006070  2**0
                  CONTENTS, READONLY, DEBUGGING
  8 .debug_line   000016e0  00000000  00000000  000076ed  2**0
                  CONTENTS, READONLY, DEBUGGING
  9 .debug_frame  000006b4  00000000  00000000  00008dd0  2**2
                  CONTENTS, READONLY, DEBUGGING
 10 .debug_str    00001049  00000000  00000000  00009484  2**0
                  CONTENTS, READONLY, DEBUGGING
 11 .debug_loc    0000215d  00000000  00000000  0000a4cd  2**0
                  CONTENTS, READONLY, DEBUGGING
 12 .debug_ranges 00000260  00000000  00000000  0000c62a  2**0
                  CONTENTS, READONLY, DEBUGGING

Disassembly of section .text:

00000000 <__vectors>:
       0:	8d c0       	rjmp	.+282    	; 0x11c <__ctors_end>
       2:	00 00       	nop
       4:	bb c0       	rjmp	.+374    	; 0x17c <__bad_interrupt>
       6:	00 00       	nop
       8:	b9 c0       	rjmp	.+370    	; 0x17c <__bad_interrupt>
       a:	00 00       	nop
       c:	b7 c0       	rjmp	.+366    	; 0x17c <__bad_interrupt>
       e:	00 00       	nop
      10:	b5 c0       	rjmp	.+362    	; 0x17c <__bad_interrupt>
      12:	00 00       	nop
      14:	b3 c0       	rjmp	.+358    	; 0x17c <__bad_interrupt>
      16:	00 00       	nop
      18:	b1 c0       	rjmp	.+354    	; 0x17c <__bad_interrupt>
      1a:	00 00       	nop
      1c:	af c0       	rjmp	.+350    	; 0x17c <__bad_interrupt>
      1e:	00 00       	nop
      20:	ad c0       	rjmp	.+346    	; 0x17c <__bad_interrupt>
      22:	00 00       	nop
      24:	ab c0       	rjmp	.+342    	; 0x17c <__bad_interrupt>
      26:	00 00       	nop
      28:	a9 c0       	rjmp	.+338    	; 0x17c <__bad_interrupt>
      2a:	00 00       	nop
      2c:	a7 c0       	rjmp	.+334    	; 0x17c <__bad_interrupt>
      2e:	00 00       	nop
      30:	a5 c0       	rjmp	.+330    	; 0x17c <__bad_interrupt>
      32:	00 00       	nop
      34:	a3 c0       	rjmp	.+326    	; 0x17c <__bad_interrupt>
      36:	00 00       	nop
      38:	a1 c0       	rjmp	.+322    	; 0x17c <__bad_interrupt>
      3a:	00 00       	nop
      3c:	9f c0       	rjmp	.+318    	; 0x17c <__bad_interrupt>
      3e:	00 00       	nop
      40:	9d c0       	rjmp	.+314    	; 0x17c <__bad_interrupt>
      42:	00 00       	nop
      44:	9b c0       	rjmp	.+310    	; 0x17c <__bad_interrupt>
      46:	00 00       	nop
      48:	99 c0       	rjmp	.+306    	; 0x17c <__bad_interrupt>
      4a:	00 00       	nop
      4c:	97 c0       	rjmp	.+302    	; 0x17c <__bad_interrupt>
      4e:	00 00       	nop
      50:	4e c3       	rjmp	.+1692   	; 0x6ee <__vector_20>
      52:	00 00       	nop
      54:	93 c0       	rjmp	.+294    	; 0x17c <__bad_interrupt>
      56:	00 00       	nop
      58:	91 c0       	rjmp	.+290    	; 0x17c <__bad_interrupt>
      5a:	00 00       	nop
      5c:	8f c0       	rjmp	.+286    	; 0x17c <__bad_interrupt>
      5e:	00 00       	nop
      60:	8d c0       	rjmp	.+282    	; 0x17c <__bad_interrupt>
      62:	00 00       	nop
      64:	0c 94 6f 0b 	jmp	0x16de	; 0x16de <__vector_25>
      68:	0c 94 45 0b 	jmp	0x168a	; 0x168a <__vector_26>
      6c:	87 c0       	rjmp	.+270    	; 0x17c <__bad_interrupt>
      6e:	00 00       	nop
      70:	85 c0       	rjmp	.+266    	; 0x17c <__bad_interrupt>
      72:	00 00       	nop
      74:	83 c0       	rjmp	.+262    	; 0x17c <__bad_interrupt>
      76:	00 00       	nop
      78:	81 c0       	rjmp	.+258    	; 0x17c <__bad_interrupt>
      7a:	00 00       	nop
      7c:	7f c0       	rjmp	.+254    	; 0x17c <__bad_interrupt>
      7e:	00 00       	nop
      80:	7d c0       	rjmp	.+250    	; 0x17c <__bad_interrupt>
      82:	00 00       	nop
      84:	7b c0       	rjmp	.+246    	; 0x17c <__bad_interrupt>
      86:	00 00       	nop
      88:	79 c0       	rjmp	.+242    	; 0x17c <__bad_interrupt>
      8a:	00 00       	nop
      8c:	77 c0       	rjmp	.+238    	; 0x17c <__bad_interrupt>
      8e:	00 00       	nop
      90:	75 c0       	rjmp	.+234    	; 0x17c <__bad_interrupt>
      92:	00 00       	nop
      94:	73 c0       	rjmp	.+230    	; 0x17c <__bad_interrupt>
      96:	00 00       	nop
      98:	71 c0       	rjmp	.+226    	; 0x17c <__bad_interrupt>
      9a:	00 00       	nop
      9c:	6f c0       	rjmp	.+222    	; 0x17c <__bad_interrupt>
      9e:	00 00       	nop
      a0:	6d c0       	rjmp	.+218    	; 0x17c <__bad_interrupt>
      a2:	00 00       	nop
      a4:	6b c0       	rjmp	.+214    	; 0x17c <__bad_interrupt>
      a6:	00 00       	nop
      a8:	69 c0       	rjmp	.+210    	; 0x17c <__bad_interrupt>
      aa:	00 00       	nop
      ac:	67 c0       	rjmp	.+206    	; 0x17c <__bad_interrupt>
      ae:	00 00       	nop
      b0:	65 c0       	rjmp	.+202    	; 0x17c <__bad_interrupt>
      b2:	00 00       	nop
      b4:	63 c0       	rjmp	.+198    	; 0x17c <__bad_interrupt>
      b6:	00 00       	nop
      b8:	61 c0       	rjmp	.+194    	; 0x17c <__bad_interrupt>
      ba:	00 00       	nop
      bc:	5f c0       	rjmp	.+190    	; 0x17c <__bad_interrupt>
      be:	00 00       	nop
      c0:	5d c0       	rjmp	.+186    	; 0x17c <__bad_interrupt>
      c2:	00 00       	nop
      c4:	5b c0       	rjmp	.+182    	; 0x17c <__bad_interrupt>
      c6:	00 00       	nop
      c8:	59 c0       	rjmp	.+178    	; 0x17c <__bad_interrupt>
      ca:	00 00       	nop
      cc:	57 c0       	rjmp	.+174    	; 0x17c <__bad_interrupt>
      ce:	00 00       	nop
      d0:	55 c0       	rjmp	.+170    	; 0x17c <__bad_interrupt>
      d2:	00 00       	nop
      d4:	53 c0       	rjmp	.+166    	; 0x17c <__bad_interrupt>
      d6:	00 00       	nop
      d8:	51 c0       	rjmp	.+162    	; 0x17c <__bad_interrupt>
      da:	00 00       	nop
      dc:	4f c0       	rjmp	.+158    	; 0x17c <__bad_interrupt>
      de:	00 00       	nop
      e0:	4d c0       	rjmp	.+154    	; 0x17c <__bad_interrupt>
      e2:	00 00       	nop
      e4:	0b 05       	cpc	r16, r11
      e6:	81 06       	cpc	r8, r17
      e8:	12 05       	cpc	r17, r2
      ea:	dc 06       	cpc	r13, r28
      ec:	dc 06       	cpc	r13, r28
      ee:	dc 06       	cpc	r13, r28
      f0:	19 05       	cpc	r17, r9
      f2:	dc 06       	cpc	r13, r28
      f4:	dc 06       	cpc	r13, r28
      f6:	dc 06       	cpc	r13, r28
      f8:	dc 06       	cpc	r13, r28
      fa:	95 06       	cpc	r9, r21
      fc:	2a 05       	cpc	r18, r10
      fe:	dc 06       	cpc	r13, r28
     100:	8b 06       	cpc	r8, r27
     102:	dc 06       	cpc	r13, r28
     104:	dc 06       	cpc	r13, r28
     106:	da 05       	cpc	r29, r10
     108:	74 07       	cpc	r23, r20
     10a:	62 08       	sbc	r6, r2
     10c:	36 09       	sbc	r19, r6
     10e:	07 09       	sbc	r16, r7
     110:	b3 09       	sbc	r27, r3
     112:	42 0a       	sbc	r4, r18
     114:	4c 0a       	sbc	r4, r28
     116:	4f 0a       	sbc	r4, r31

00000118 <__ctors_start>:
     118:	b1 03       	fmuls	r19, r17
     11a:	81 0a       	sbc	r8, r17

0000011c <__ctors_end>:
     11c:	11 24       	eor	r1, r1
     11e:	1f be       	out	0x3f, r1	; 63
     120:	cf ef       	ldi	r28, 0xFF	; 255
     122:	d1 e2       	ldi	r29, 0x21	; 33
     124:	de bf       	out	0x3e, r29	; 62
     126:	cd bf       	out	0x3d, r28	; 61
     128:	00 e0       	ldi	r16, 0x00	; 0
     12a:	0c bf       	out	0x3c, r16	; 60

0000012c <__do_copy_data>:
     12c:	13 e0       	ldi	r17, 0x03	; 3
     12e:	a0 e0       	ldi	r26, 0x00	; 0
     130:	b2 e0       	ldi	r27, 0x02	; 2
     132:	ee eb       	ldi	r30, 0xBE	; 190
     134:	f9 e1       	ldi	r31, 0x19	; 25
     136:	00 e0       	ldi	r16, 0x00	; 0
     138:	0b bf       	out	0x3b, r16	; 59
     13a:	02 c0       	rjmp	.+4      	; 0x140 <__do_copy_data+0x14>
     13c:	07 90       	elpm	r0, Z+
     13e:	0d 92       	st	X+, r0
     140:	ae 32       	cpi	r26, 0x2E	; 46
     142:	b1 07       	cpc	r27, r17
     144:	d9 f7       	brne	.-10     	; 0x13c <__do_copy_data+0x10>

00000146 <__do_clear_bss>:
     146:	2f e0       	ldi	r18, 0x0F	; 15
     148:	ae e2       	ldi	r26, 0x2E	; 46
     14a:	b3 e0       	ldi	r27, 0x03	; 3
     14c:	01 c0       	rjmp	.+2      	; 0x150 <.do_clear_bss_start>

0000014e <.do_clear_bss_loop>:
     14e:	1d 92       	st	X+, r1

00000150 <.do_clear_bss_start>:
     150:	ae 3f       	cpi	r26, 0xFE	; 254
     152:	b2 07       	cpc	r27, r18
     154:	e1 f7       	brne	.-8      	; 0x14e <.do_clear_bss_loop>

00000156 <__do_global_ctors>:
     156:	10 e0       	ldi	r17, 0x00	; 0
     158:	ce e8       	ldi	r28, 0x8E	; 142
     15a:	d0 e0       	ldi	r29, 0x00	; 0
     15c:	00 e0       	ldi	r16, 0x00	; 0
     15e:	06 c0       	rjmp	.+12     	; 0x16c <__do_global_ctors+0x16>
     160:	21 97       	sbiw	r28, 0x01	; 1
     162:	01 09       	sbc	r16, r1
     164:	80 2f       	mov	r24, r16
     166:	fe 01       	movw	r30, r28
     168:	0e 94 85 0c 	call	0x190a	; 0x190a <__tablejump2__>
     16c:	cc 38       	cpi	r28, 0x8C	; 140
     16e:	d1 07       	cpc	r29, r17
     170:	80 e0       	ldi	r24, 0x00	; 0
     172:	08 07       	cpc	r16, r24
     174:	a9 f7       	brne	.-22     	; 0x160 <__do_global_ctors+0xa>
     176:	c9 d3       	rcall	.+1938   	; 0x90a <main>
     178:	0c 94 dd 0c 	jmp	0x19ba	; 0x19ba <_exit>

0000017c <__bad_interrupt>:
     17c:	41 cf       	rjmp	.-382    	; 0x0 <__vectors>

0000017e <_Z8atrasomsj>:
#include <avr/io.h>
void atrasoms(unsigned int ms){
	/*	void atrasoms(int ms);
		aceita entrada de até 65535ms ou 65,535 segundos				
	*/
	TCNT0 = 0;
     17e:	16 bc       	out	0x26, r1	; 38
	TCCR0B = 0x03;	//00000011 CTC mode, prescaller x64 //já inicia contagem
     180:	23 e0       	ldi	r18, 0x03	; 3
     182:	25 bd       	out	0x25, r18	; 37
	TCCR0A = 0x02;	//00000010 CTC mode
     184:	22 e0       	ldi	r18, 0x02	; 2
     186:	24 bd       	out	0x24, r18	; 36
	OCR0A = 249;	//250 contagens * 64 prescaller / 16MHz = 1ms
     188:	29 ef       	ldi	r18, 0xF9	; 249
     18a:	27 bd       	out	0x27, r18	; 39

	while(ms > 0){
     18c:	00 97       	sbiw	r24, 0x00	; 0
     18e:	29 f0       	breq	.+10     	; 0x19a <_Z8atrasomsj+0x1c>
		while(!(TIFR0 & (1<<1))); //congela timer enquanto
     190:	a9 9b       	sbis	0x15, 1	; 21
     192:	fe cf       	rjmp	.-4      	; 0x190 <_Z8atrasomsj+0x12>
		TIFR0 |= 1<<1; //Limpa flag comparador A setando pra 1.
     194:	a9 9a       	sbi	0x15, 1	; 21
		ms--;
     196:	01 97       	sbiw	r24, 0x01	; 1
	TCNT0 = 0;
	TCCR0B = 0x03;	//00000011 CTC mode, prescaller x64 //já inicia contagem
	TCCR0A = 0x02;	//00000010 CTC mode
	OCR0A = 249;	//250 contagens * 64 prescaller / 16MHz = 1ms

	while(ms > 0){
     198:	d9 f7       	brne	.-10     	; 0x190 <_Z8atrasomsj+0x12>
     19a:	08 95       	ret

0000019c <_Z8atrasousj>:
void atrasous(unsigned int us){ //aproximado 0,2us a mais
	/*	void atrasous(int us);
		aceita entrada de até 65535us ou 65,535ms
	*/
	//16 contagens / 16MHz = 1 us
	TCNT0 = 0;
     19c:	16 bc       	out	0x26, r1	; 38
	TCCR0B = 0x01; //sem prescaller CTC //já inicia timer
     19e:	21 e0       	ldi	r18, 0x01	; 1
     1a0:	25 bd       	out	0x25, r18	; 37
	TCCR0A = 0x02; //CTC
     1a2:	22 e0       	ldi	r18, 0x02	; 2
     1a4:	24 bd       	out	0x24, r18	; 36
	OCR0A = 15;
     1a6:	2f e0       	ldi	r18, 0x0F	; 15
     1a8:	27 bd       	out	0x27, r18	; 39

	while(us > 0){
     1aa:	00 97       	sbiw	r24, 0x00	; 0
     1ac:	29 f0       	breq	.+10     	; 0x1b8 <_Z8atrasousj+0x1c>
		while(!(TIFR0 & (1<<1)));	
     1ae:	a9 9b       	sbis	0x15, 1	; 21
     1b0:	fe cf       	rjmp	.-4      	; 0x1ae <_Z8atrasousj+0x12>
		TIFR0 |= 1<<1; //Limpa flag comparador A setando pra 1.
     1b2:	a9 9a       	sbi	0x15, 1	; 21
		us--;
     1b4:	01 97       	sbiw	r24, 0x01	; 1
	TCNT0 = 0;
	TCCR0B = 0x01; //sem prescaller CTC //já inicia timer
	TCCR0A = 0x02; //CTC
	OCR0A = 15;

	while(us > 0){
     1b6:	d9 f7       	brne	.-10     	; 0x1ae <_Z8atrasousj+0x12>
     1b8:	08 95       	ret

000001ba <_ZN8DataHoraC1Ecccc>:
	if(retorno.dia<0){
		retorno.dia +=30;
		retorno.mes--;
	}
	return retorno;
}
     1ba:	0f 93       	push	r16
     1bc:	fc 01       	movw	r30, r24
     1be:	60 83       	st	Z, r22
     1c0:	41 83       	std	Z+1, r20	; 0x01
     1c2:	22 83       	std	Z+2, r18	; 0x02
     1c4:	03 83       	std	Z+3, r16	; 0x03
     1c6:	14 82       	std	Z+4, r1	; 0x04
     1c8:	0f 91       	pop	r16
     1ca:	08 95       	ret

000001cc <_ZN8DataHora11setByVectorEPc>:
     1cc:	fc 01       	movw	r30, r24
     1ce:	db 01       	movw	r26, r22
     1d0:	8c 91       	ld	r24, X
     1d2:	80 83       	st	Z, r24
     1d4:	11 96       	adiw	r26, 0x01	; 1
     1d6:	8c 91       	ld	r24, X
     1d8:	11 97       	sbiw	r26, 0x01	; 1
     1da:	81 83       	std	Z+1, r24	; 0x01
     1dc:	12 96       	adiw	r26, 0x02	; 2
     1de:	8c 91       	ld	r24, X
     1e0:	12 97       	sbiw	r26, 0x02	; 2
     1e2:	82 83       	std	Z+2, r24	; 0x02
     1e4:	13 96       	adiw	r26, 0x03	; 3
     1e6:	8c 91       	ld	r24, X
     1e8:	83 83       	std	Z+3, r24	; 0x03
     1ea:	08 95       	ret

000001ec <_ZN8DataHora13setByDataHoraES_>:
     1ec:	cf 93       	push	r28
     1ee:	df 93       	push	r29
     1f0:	00 d0       	rcall	.+0      	; 0x1f2 <_ZN8DataHora13setByDataHoraES_+0x6>
     1f2:	1f 92       	push	r1
     1f4:	1f 92       	push	r1
     1f6:	cd b7       	in	r28, 0x3d	; 61
     1f8:	de b7       	in	r29, 0x3e	; 62
     1fa:	fc 01       	movw	r30, r24
     1fc:	20 83       	st	Z, r18
     1fe:	31 83       	std	Z+1, r19	; 0x01
     200:	42 83       	std	Z+2, r20	; 0x02
     202:	53 83       	std	Z+3, r21	; 0x03
     204:	64 83       	std	Z+4, r22	; 0x04
     206:	0f 90       	pop	r0
     208:	0f 90       	pop	r0
     20a:	0f 90       	pop	r0
     20c:	0f 90       	pop	r0
     20e:	0f 90       	pop	r0
     210:	df 91       	pop	r29
     212:	cf 91       	pop	r28
     214:	08 95       	ret

00000216 <_ZN8DataHora7diffMinES_>:
int DataHora::diffMin(DataHora comp){
     216:	0f 93       	push	r16
     218:	1f 93       	push	r17
     21a:	cf 93       	push	r28
     21c:	df 93       	push	r29
     21e:	00 d0       	rcall	.+0      	; 0x220 <_ZN8DataHora7diffMinES_+0xa>
     220:	1f 92       	push	r1
     222:	1f 92       	push	r1
     224:	cd b7       	in	r28, 0x3d	; 61
     226:	de b7       	in	r29, 0x3e	; 62
	//int minutosTotal = (comp.dia - this->dia)*60*24; //Dias
	//minutosTotal += (comp.mes - this->mes)*24*60*30; //Meses de 30 dias
	int minutosTotal = (comp.hora - this->hora)*60; //Horas
     228:	24 2f       	mov	r18, r20
     22a:	30 e0       	ldi	r19, 0x00	; 0
     22c:	fc 01       	movw	r30, r24
     22e:	42 81       	ldd	r20, Z+2	; 0x02
     230:	24 1b       	sub	r18, r20
     232:	31 09       	sbc	r19, r1
     234:	4c e3       	ldi	r20, 0x3C	; 60
     236:	42 9f       	mul	r20, r18
     238:	80 01       	movw	r16, r0
     23a:	43 9f       	mul	r20, r19
     23c:	10 0d       	add	r17, r0
     23e:	11 24       	eor	r1, r1
	minutosTotal += (comp.min - this->min); //Minutos
     240:	25 2f       	mov	r18, r21
     242:	30 e0       	ldi	r19, 0x00	; 0
     244:	83 81       	ldd	r24, Z+3	; 0x03
     246:	a9 01       	movw	r20, r18
     248:	48 1b       	sub	r20, r24
     24a:	51 09       	sbc	r21, r1
     24c:	04 0f       	add	r16, r20
     24e:	15 1f       	adc	r17, r21
	#if debugMin == 1
		escreveVetor("diffMin",8);
     250:	68 e0       	ldi	r22, 0x08	; 8
     252:	70 e0       	ldi	r23, 0x00	; 0
     254:	82 e0       	ldi	r24, 0x02	; 2
     256:	92 e0       	ldi	r25, 0x02	; 2
     258:	0e 94 30 0b 	call	0x1660	; 0x1660 <_Z12escreveVetorPci>
		//escreve(minutosTotal>>8);
		escreve((char)minutosTotal);
     25c:	80 2f       	mov	r24, r16
     25e:	0e 94 14 0b 	call	0x1628	; 0x1628 <_Z7escrevec>
		escreve('\n');
     262:	8a e0       	ldi	r24, 0x0A	; 10
     264:	0e 94 14 0b 	call	0x1628	; 0x1628 <_Z7escrevec>
	#endif
	return minutosTotal;
}
     268:	c8 01       	movw	r24, r16
     26a:	0f 90       	pop	r0
     26c:	0f 90       	pop	r0
     26e:	0f 90       	pop	r0
     270:	0f 90       	pop	r0
     272:	0f 90       	pop	r0
     274:	df 91       	pop	r29
     276:	cf 91       	pop	r28
     278:	1f 91       	pop	r17
     27a:	0f 91       	pop	r16
     27c:	08 95       	ret

0000027e <_ZN8DataHora7diffSecES_>:
int DataHora::diffSec(DataHora comp){
     27e:	0f 93       	push	r16
     280:	1f 93       	push	r17
     282:	cf 93       	push	r28
     284:	df 93       	push	r29
     286:	00 d0       	rcall	.+0      	; 0x288 <_ZN8DataHora7diffSecES_+0xa>
     288:	1f 92       	push	r1
     28a:	1f 92       	push	r1
     28c:	cd b7       	in	r28, 0x3d	; 61
     28e:	de b7       	in	r29, 0x3e	; 62
     290:	fc 01       	movw	r30, r24
     292:	83 2f       	mov	r24, r19
	int segundos = (comp.dia - this->dia)*60*24*60; //Dias
     294:	30 e0       	ldi	r19, 0x00	; 0
     296:	90 81       	ld	r25, Z
     298:	29 1b       	sub	r18, r25
     29a:	31 09       	sbc	r19, r1
     29c:	a0 ea       	ldi	r26, 0xA0	; 160
     29e:	b5 e0       	ldi	r27, 0x05	; 5
     2a0:	2a 9f       	mul	r18, r26
     2a2:	80 01       	movw	r16, r0
     2a4:	2b 9f       	mul	r18, r27
     2a6:	10 0d       	add	r17, r0
     2a8:	3a 9f       	mul	r19, r26
     2aa:	10 0d       	add	r17, r0
     2ac:	11 24       	eor	r1, r1
     2ae:	7c e3       	ldi	r23, 0x3C	; 60
     2b0:	70 9f       	mul	r23, r16
     2b2:	90 01       	movw	r18, r0
     2b4:	71 9f       	mul	r23, r17
     2b6:	30 0d       	add	r19, r0
     2b8:	11 24       	eor	r1, r1
	segundos += (comp.mes - this->mes)*24*60*30*60; //Meses de 30 dias
     2ba:	90 e0       	ldi	r25, 0x00	; 0
     2bc:	11 81       	ldd	r17, Z+1	; 0x01
     2be:	81 1b       	sub	r24, r17
     2c0:	91 09       	sbc	r25, r1
     2c2:	8a 9f       	mul	r24, r26
     2c4:	80 01       	movw	r16, r0
     2c6:	8b 9f       	mul	r24, r27
     2c8:	10 0d       	add	r17, r0
     2ca:	9a 9f       	mul	r25, r26
     2cc:	10 0d       	add	r17, r0
     2ce:	11 24       	eor	r1, r1
     2d0:	a8 e0       	ldi	r26, 0x08	; 8
     2d2:	b7 e0       	ldi	r27, 0x07	; 7
     2d4:	0a 9f       	mul	r16, r26
     2d6:	c0 01       	movw	r24, r0
     2d8:	0b 9f       	mul	r16, r27
     2da:	90 0d       	add	r25, r0
     2dc:	1a 9f       	mul	r17, r26
     2de:	90 0d       	add	r25, r0
     2e0:	11 24       	eor	r1, r1
     2e2:	28 0f       	add	r18, r24
     2e4:	39 1f       	adc	r19, r25
	segundos += (comp.hora - this->hora)*60*60; //Horas
     2e6:	a4 2f       	mov	r26, r20
     2e8:	b0 e0       	ldi	r27, 0x00	; 0
     2ea:	82 81       	ldd	r24, Z+2	; 0x02
     2ec:	a8 1b       	sub	r26, r24
     2ee:	b1 09       	sbc	r27, r1
     2f0:	00 e1       	ldi	r16, 0x10	; 16
     2f2:	1e e0       	ldi	r17, 0x0E	; 14
     2f4:	a0 9f       	mul	r26, r16
     2f6:	c0 01       	movw	r24, r0
     2f8:	a1 9f       	mul	r26, r17
     2fa:	90 0d       	add	r25, r0
     2fc:	b0 9f       	mul	r27, r16
     2fe:	90 0d       	add	r25, r0
     300:	11 24       	eor	r1, r1
     302:	28 0f       	add	r18, r24
     304:	39 1f       	adc	r19, r25
	segundos += (comp.min - this->min)*60; //Minutos
     306:	45 2f       	mov	r20, r21
     308:	50 e0       	ldi	r21, 0x00	; 0
     30a:	83 81       	ldd	r24, Z+3	; 0x03
     30c:	48 1b       	sub	r20, r24
     30e:	51 09       	sbc	r21, r1
     310:	74 9f       	mul	r23, r20
     312:	c0 01       	movw	r24, r0
     314:	75 9f       	mul	r23, r21
     316:	90 0d       	add	r25, r0
     318:	11 24       	eor	r1, r1
     31a:	28 0f       	add	r18, r24
     31c:	39 1f       	adc	r19, r25
		escreve(segundos>>16);
		escreve(segundos>>8);
		escreve(segundos);
		escreve('\n');
	#endif
	return segundos;
     31e:	70 e0       	ldi	r23, 0x00	; 0
     320:	84 81       	ldd	r24, Z+4	; 0x04
     322:	ab 01       	movw	r20, r22
     324:	48 1b       	sub	r20, r24
     326:	51 09       	sbc	r21, r1
     328:	ca 01       	movw	r24, r20
}
     32a:	82 0f       	add	r24, r18
     32c:	93 1f       	adc	r25, r19
     32e:	0f 90       	pop	r0
     330:	0f 90       	pop	r0
     332:	0f 90       	pop	r0
     334:	0f 90       	pop	r0
     336:	0f 90       	pop	r0
     338:	df 91       	pop	r29
     33a:	cf 91       	pop	r28
     33c:	1f 91       	pop	r17
     33e:	0f 91       	pop	r16
     340:	08 95       	ret

00000342 <_ZN8DataHora6incSegEc>:

void DataHora::incSeg(char segundos){
     342:	fc 01       	movw	r30, r24
	this->seg += segundos;
     344:	84 81       	ldd	r24, Z+4	; 0x04
     346:	68 0f       	add	r22, r24
     348:	64 83       	std	Z+4, r22	; 0x04
	if(this->seg >= 60){
     34a:	6c 33       	cpi	r22, 0x3C	; 60
     34c:	78 f0       	brcs	.+30     	; 0x36c <_ZN8DataHora6incSegEc+0x2a>
		this->min += this->seg/60;
     34e:	89 e8       	ldi	r24, 0x89	; 137
     350:	68 9f       	mul	r22, r24
     352:	81 2d       	mov	r24, r1
     354:	11 24       	eor	r1, r1
     356:	82 95       	swap	r24
     358:	86 95       	lsr	r24
     35a:	87 70       	andi	r24, 0x07	; 7
     35c:	93 81       	ldd	r25, Z+3	; 0x03
     35e:	98 0f       	add	r25, r24
     360:	93 83       	std	Z+3, r25	; 0x03
		this->seg %= 60;
     362:	2c e3       	ldi	r18, 0x3C	; 60
     364:	82 9f       	mul	r24, r18
     366:	60 19       	sub	r22, r0
     368:	11 24       	eor	r1, r1
     36a:	64 83       	std	Z+4, r22	; 0x04
	}
	if(this->min >= 60){
     36c:	83 81       	ldd	r24, Z+3	; 0x03
     36e:	8c 33       	cpi	r24, 0x3C	; 60
     370:	78 f0       	brcs	.+30     	; 0x390 <_ZN8DataHora6incSegEc+0x4e>
		this->hora += this->min/60;
     372:	99 e8       	ldi	r25, 0x89	; 137
     374:	89 9f       	mul	r24, r25
     376:	91 2d       	mov	r25, r1
     378:	11 24       	eor	r1, r1
     37a:	92 95       	swap	r25
     37c:	96 95       	lsr	r25
     37e:	97 70       	andi	r25, 0x07	; 7
     380:	22 81       	ldd	r18, Z+2	; 0x02
     382:	29 0f       	add	r18, r25
     384:	22 83       	std	Z+2, r18	; 0x02
		this->min %= 60;
     386:	2c e3       	ldi	r18, 0x3C	; 60
     388:	92 9f       	mul	r25, r18
     38a:	80 19       	sub	r24, r0
     38c:	11 24       	eor	r1, r1
     38e:	83 83       	std	Z+3, r24	; 0x03
	}
	if(this->hora >= 24){
     390:	82 81       	ldd	r24, Z+2	; 0x02
     392:	88 31       	cpi	r24, 0x18	; 24
     394:	70 f0       	brcs	.+28     	; 0x3b2 <_ZN8DataHora6incSegEc+0x70>
		this->dia += this->hora/24;
     396:	9b ea       	ldi	r25, 0xAB	; 171
     398:	89 9f       	mul	r24, r25
     39a:	91 2d       	mov	r25, r1
     39c:	11 24       	eor	r1, r1
     39e:	92 95       	swap	r25
     3a0:	9f 70       	andi	r25, 0x0F	; 15
     3a2:	20 81       	ld	r18, Z
     3a4:	29 0f       	add	r18, r25
     3a6:	20 83       	st	Z, r18
		this->hora %= 24;
     3a8:	28 e1       	ldi	r18, 0x18	; 24
     3aa:	92 9f       	mul	r25, r18
     3ac:	80 19       	sub	r24, r0
     3ae:	11 24       	eor	r1, r1
     3b0:	82 83       	std	Z+2, r24	; 0x02
	}
	if(this->dia >= 30){
     3b2:	80 81       	ld	r24, Z
     3b4:	8e 31       	cpi	r24, 0x1E	; 30
     3b6:	70 f0       	brcs	.+28     	; 0x3d4 <_ZN8DataHora6incSegEc+0x92>
		this->mes += dia/30;
     3b8:	99 e8       	ldi	r25, 0x89	; 137
     3ba:	89 9f       	mul	r24, r25
     3bc:	91 2d       	mov	r25, r1
     3be:	11 24       	eor	r1, r1
     3c0:	92 95       	swap	r25
     3c2:	9f 70       	andi	r25, 0x0F	; 15
     3c4:	21 81       	ldd	r18, Z+1	; 0x01
     3c6:	29 0f       	add	r18, r25
     3c8:	21 83       	std	Z+1, r18	; 0x01
		this->dia %= 30;
     3ca:	2e e1       	ldi	r18, 0x1E	; 30
     3cc:	92 9f       	mul	r25, r18
     3ce:	80 19       	sub	r24, r0
     3d0:	11 24       	eor	r1, r1
     3d2:	80 83       	st	Z, r24
     3d4:	08 95       	ret

000003d6 <_ZN7VeiculoC1E8DataHora>:
	}
}

Veiculo::Veiculo(DataHora _dataEntrada){
     3d6:	cf 93       	push	r28
     3d8:	df 93       	push	r29
     3da:	00 d0       	rcall	.+0      	; 0x3dc <_ZN7VeiculoC1E8DataHora+0x6>
     3dc:	1f 92       	push	r1
     3de:	1f 92       	push	r1
     3e0:	cd b7       	in	r28, 0x3d	; 61
     3e2:	de b7       	in	r29, 0x3e	; 62
     3e4:	dc 01       	movw	r26, r24
     3e6:	29 83       	std	Y+1, r18	; 0x01
     3e8:	3a 83       	std	Y+2, r19	; 0x02
     3ea:	4b 83       	std	Y+3, r20	; 0x03
     3ec:	5c 83       	std	Y+4, r21	; 0x04
     3ee:	6d 83       	std	Y+5, r22	; 0x05
#include "serial.h"
#define debugMin 1
#define debugPagar 1
#define debugSec 0
DataHora::DataHora(char _dia, char _mes, char _hora, char _min){
		dia =_dia;
     3f0:	81 e0       	ldi	r24, 0x01	; 1
     3f2:	1d 96       	adiw	r26, 0x0d	; 13
     3f4:	8c 93       	st	X, r24
     3f6:	1d 97       	sbiw	r26, 0x0d	; 13
		mes = _mes;
     3f8:	1e 96       	adiw	r26, 0x0e	; 14
     3fa:	8c 93       	st	X, r24
     3fc:	1e 97       	sbiw	r26, 0x0e	; 14
		hora = _hora;
     3fe:	1f 96       	adiw	r26, 0x0f	; 15
     400:	1c 92       	st	X, r1
     402:	1f 97       	sbiw	r26, 0x0f	; 15
		min = _min;
     404:	50 96       	adiw	r26, 0x10	; 16
     406:	1c 92       	st	X, r1
     408:	50 97       	sbiw	r26, 0x10	; 16
		seg = 0;
     40a:	51 96       	adiw	r26, 0x11	; 17
     40c:	1c 92       	st	X, r1
     40e:	51 97       	sbiw	r26, 0x11	; 17
		this->dia %= 30;
	}
}

Veiculo::Veiculo(DataHora _dataEntrada){
	this->valorpago=0;
     410:	53 96       	adiw	r26, 0x13	; 19
     412:	1c 92       	st	X, r1
     414:	1e 92       	st	-X, r1
     416:	52 97       	sbiw	r26, 0x12	; 18
	this->estEspecial = 0;
     418:	55 96       	adiw	r26, 0x15	; 21
     41a:	1c 92       	st	X, r1
     41c:	55 97       	sbiw	r26, 0x15	; 21
	this->estEspecialAntes=0;
     41e:	56 96       	adiw	r26, 0x16	; 22
     420:	1c 92       	st	X, r1
     422:	56 97       	sbiw	r26, 0x16	; 22
	this->estado=FORA;
     424:	83 e0       	ldi	r24, 0x03	; 3
     426:	54 96       	adiw	r26, 0x14	; 20
     428:	8c 93       	st	X, r24
     42a:	54 97       	sbiw	r26, 0x14	; 20
     42c:	fd 01       	movw	r30, r26
     42e:	9d 01       	movw	r18, r26
     430:	29 5f       	subi	r18, 0xF9	; 249
     432:	3f 4f       	sbci	r19, 0xFF	; 255
	for(int i=0; i<7; i++){
		this->placa[i] = '#';
     434:	83 e2       	ldi	r24, 0x23	; 35
     436:	81 93       	st	Z+, r24
Veiculo::Veiculo(DataHora _dataEntrada){
	this->valorpago=0;
	this->estEspecial = 0;
	this->estEspecialAntes=0;
	this->estado=FORA;
	for(int i=0; i<7; i++){
     438:	e2 17       	cp	r30, r18
     43a:	f3 07       	cpc	r31, r19
     43c:	e1 f7       	brne	.-8      	; 0x436 <__LOCK_REGION_LENGTH__+0x36>
		this->placa[i] = '#';
	}
	this->placa[7] = '\0';
     43e:	17 96       	adiw	r26, 0x07	; 7
     440:	1c 92       	st	X, r1
     442:	17 97       	sbiw	r26, 0x07	; 7
	this->dataEntrada = _dataEntrada;
     444:	85 e0       	ldi	r24, 0x05	; 5
     446:	fe 01       	movw	r30, r28
     448:	31 96       	adiw	r30, 0x01	; 1
     44a:	18 96       	adiw	r26, 0x08	; 8
     44c:	01 90       	ld	r0, Z+
     44e:	0d 92       	st	X+, r0
     450:	8a 95       	dec	r24
     452:	e1 f7       	brne	.-8      	; 0x44c <__LOCK_REGION_LENGTH__+0x4c>
}
     454:	0f 90       	pop	r0
     456:	0f 90       	pop	r0
     458:	0f 90       	pop	r0
     45a:	0f 90       	pop	r0
     45c:	0f 90       	pop	r0
     45e:	df 91       	pop	r29
     460:	cf 91       	pop	r28
     462:	08 95       	ret

00000464 <_ZN7Veiculo11calculaPgtoE8DataHora>:

int Veiculo::calculaPgto(DataHora agora){//valor a pagar
     464:	ef 92       	push	r14
     466:	ff 92       	push	r15
     468:	0f 93       	push	r16
     46a:	1f 93       	push	r17
     46c:	cf 93       	push	r28
     46e:	df 93       	push	r29
     470:	00 d0       	rcall	.+0      	; 0x472 <_ZN7Veiculo11calculaPgtoE8DataHora+0xe>
     472:	1f 92       	push	r1
     474:	1f 92       	push	r1
     476:	cd b7       	in	r28, 0x3d	; 61
     478:	de b7       	in	r29, 0x3e	; 62
     47a:	7c 01       	movw	r14, r24
     47c:	29 83       	std	Y+1, r18	; 0x01
     47e:	3a 83       	std	Y+2, r19	; 0x02
     480:	4b 83       	std	Y+3, r20	; 0x03
     482:	5c 83       	std	Y+4, r21	; 0x04
     484:	6d 83       	std	Y+5, r22	; 0x05
	//se retornar 0, libera saída, caso contrário cobra pagamento
	int minutos = this->dataEntrada.diffMin(agora);
     486:	c7 01       	movw	r24, r14
     488:	08 96       	adiw	r24, 0x08	; 8
     48a:	c5 de       	rcall	.-630    	; 0x216 <_ZN8DataHora7diffMinES_>
     48c:	9c 01       	movw	r18, r24
	//int minutos = 70;
	//int tmp;
	int pagar=0;

	if(minutos<=15){		
     48e:	80 31       	cpi	r24, 0x10	; 16
     490:	91 05       	cpc	r25, r1
     492:	ec f0       	brlt	.+58     	; 0x4ce <_ZN7Veiculo11calculaPgtoE8DataHora+0x6a>
		pagar = 0;
	}else if(minutos<=60){
     494:	8d 33       	cpi	r24, 0x3D	; 61
     496:	91 05       	cpc	r25, r1
     498:	44 f4       	brge	.+16     	; 0x4aa <_ZN7Veiculo11calculaPgtoE8DataHora+0x46>
		pagar = 10-this->valorpago;
     49a:	f7 01       	movw	r30, r14
     49c:	82 89       	ldd	r24, Z+18	; 0x12
     49e:	93 89       	ldd	r25, Z+19	; 0x13
     4a0:	0a e0       	ldi	r16, 0x0A	; 10
     4a2:	10 e0       	ldi	r17, 0x00	; 0
     4a4:	08 1b       	sub	r16, r24
     4a6:	19 0b       	sbc	r17, r25
     4a8:	14 c0       	rjmp	.+40     	; 0x4d2 <_ZN7Veiculo11calculaPgtoE8DataHora+0x6e>
	}else{
		//if(minutos%30){//se n divide por 30
		//	tmp = (minutos/30+1)*30; //arredonda para cima
		//	pagar = 10+((tmp-60)/30)*4-this->valorpago;
		//}else{
			pagar = (10+((minutos-60)/30+1)*4) - this->valorpago; //0 a 29 e 30 a 59...
     4aa:	cc 97       	sbiw	r24, 0x3c	; 60
     4ac:	6e e1       	ldi	r22, 0x1E	; 30
     4ae:	70 e0       	ldi	r23, 0x00	; 0
     4b0:	0e 94 72 0c 	call	0x18e4	; 0x18e4 <__divmodhi4>
     4b4:	8b 01       	movw	r16, r22
     4b6:	00 0f       	add	r16, r16
     4b8:	11 1f       	adc	r17, r17
     4ba:	00 0f       	add	r16, r16
     4bc:	11 1f       	adc	r17, r17
     4be:	02 5f       	subi	r16, 0xF2	; 242
     4c0:	1f 4f       	sbci	r17, 0xFF	; 255
     4c2:	f7 01       	movw	r30, r14
     4c4:	82 89       	ldd	r24, Z+18	; 0x12
     4c6:	93 89       	ldd	r25, Z+19	; 0x13
     4c8:	08 1b       	sub	r16, r24
     4ca:	19 0b       	sbc	r17, r25
     4cc:	02 c0       	rjmp	.+4      	; 0x4d2 <_ZN7Veiculo11calculaPgtoE8DataHora+0x6e>
	//int minutos = 70;
	//int tmp;
	int pagar=0;

	if(minutos<=15){		
		pagar = 0;
     4ce:	00 e0       	ldi	r16, 0x00	; 0
     4d0:	10 e0       	ldi	r17, 0x00	; 0
		//}else{
			pagar = (10+((minutos-60)/30+1)*4) - this->valorpago; //0 a 29 e 30 a 59...
		//}
	}
	
	if(this->estEspecial && this->estEspecialAntes){
     4d2:	f7 01       	movw	r30, r14
     4d4:	85 89       	ldd	r24, Z+21	; 0x15
     4d6:	88 23       	and	r24, r24
     4d8:	71 f0       	breq	.+28     	; 0x4f6 <_ZN7Veiculo11calculaPgtoE8DataHora+0x92>
     4da:	86 89       	ldd	r24, Z+22	; 0x16
     4dc:	88 23       	and	r24, r24
     4de:	59 f0       	breq	.+22     	; 0x4f6 <_ZN7Veiculo11calculaPgtoE8DataHora+0x92>
		pagar += (minutos/30+1)*2;
     4e0:	c9 01       	movw	r24, r18
     4e2:	6e e1       	ldi	r22, 0x1E	; 30
     4e4:	70 e0       	ldi	r23, 0x00	; 0
     4e6:	0e 94 72 0c 	call	0x18e4	; 0x18e4 <__divmodhi4>
     4ea:	6f 5f       	subi	r22, 0xFF	; 255
     4ec:	7f 4f       	sbci	r23, 0xFF	; 255
     4ee:	66 0f       	add	r22, r22
     4f0:	77 1f       	adc	r23, r23
     4f2:	06 0f       	add	r16, r22
     4f4:	17 1f       	adc	r17, r23
	}
	
	if(this->dataPagamento.diffMin(agora)<=15)
     4f6:	29 81       	ldd	r18, Y+1	; 0x01
     4f8:	3a 81       	ldd	r19, Y+2	; 0x02
     4fa:	4b 81       	ldd	r20, Y+3	; 0x03
     4fc:	5c 81       	ldd	r21, Y+4	; 0x04
     4fe:	6d 81       	ldd	r22, Y+5	; 0x05
     500:	c7 01       	movw	r24, r14
     502:	0d 96       	adiw	r24, 0x0d	; 13
     504:	88 de       	rcall	.-752    	; 0x216 <_ZN8DataHora7diffMinES_>
     506:	40 97       	sbiw	r24, 0x10	; 16
     508:	14 f4       	brge	.+4      	; 0x50e <_ZN7Veiculo11calculaPgtoE8DataHora+0xaa>
		pagar = 0;
     50a:	00 e0       	ldi	r16, 0x00	; 0
     50c:	10 e0       	ldi	r17, 0x00	; 0
	//pagar = 10+((minutos-60)/30+1)*4;
	//pagar = (int)(10+((minutos-60)/30+1)*4);
	//pagar = (int)(this->valorpago);

	#if debugPagar == 1
		escreveVetor("calculaPgto",13);
     50e:	6d e0       	ldi	r22, 0x0D	; 13
     510:	70 e0       	ldi	r23, 0x00	; 0
     512:	8a e0       	ldi	r24, 0x0A	; 10
     514:	92 e0       	ldi	r25, 0x02	; 2
     516:	0e 94 30 0b 	call	0x1660	; 0x1660 <_Z12escreveVetorPci>
		//escreve(minutosTotal>>8);
		escreve((char)pagar);
     51a:	80 2f       	mov	r24, r16
     51c:	0e 94 14 0b 	call	0x1628	; 0x1628 <_Z7escrevec>
		escreve('\n');
     520:	8a e0       	ldi	r24, 0x0A	; 10
     522:	0e 94 14 0b 	call	0x1628	; 0x1628 <_Z7escrevec>
	#endif
	
	return pagar;
}
     526:	c8 01       	movw	r24, r16
     528:	0f 90       	pop	r0
     52a:	0f 90       	pop	r0
     52c:	0f 90       	pop	r0
     52e:	0f 90       	pop	r0
     530:	0f 90       	pop	r0
     532:	df 91       	pop	r29
     534:	cf 91       	pop	r28
     536:	1f 91       	pop	r17
     538:	0f 91       	pop	r16
     53a:	ff 90       	pop	r15
     53c:	ef 90       	pop	r14
     53e:	08 95       	ret

00000540 <_ZN7Veiculo5pagarEi8DataHora>:

int Veiculo::pagar(int valor, DataHora agora){
     540:	0f 93       	push	r16
     542:	1f 93       	push	r17
     544:	cf 93       	push	r28
     546:	df 93       	push	r29
     548:	00 d0       	rcall	.+0      	; 0x54a <_ZN7Veiculo5pagarEi8DataHora+0xa>
     54a:	1f 92       	push	r1
     54c:	1f 92       	push	r1
     54e:	cd b7       	in	r28, 0x3d	; 61
     550:	de b7       	in	r29, 0x3e	; 62
     552:	fc 01       	movw	r30, r24
     554:	09 83       	std	Y+1, r16	; 0x01
     556:	1a 83       	std	Y+2, r17	; 0x02
     558:	2b 83       	std	Y+3, r18	; 0x03
     55a:	3c 83       	std	Y+4, r19	; 0x04
     55c:	4d 83       	std	Y+5, r20	; 0x05
	if(valor > 0)
     55e:	16 16       	cp	r1, r22
     560:	17 06       	cpc	r1, r23
     562:	3c f4       	brge	.+14     	; 0x572 <_ZN7Veiculo5pagarEi8DataHora+0x32>
     564:	9c 81       	ldd	r25, Y+4	; 0x04
     566:	84 2f       	mov	r24, r20
	this->mes = min.mes;
	this->hora = min.hora;
	this->min = min.min;
}
void DataHora::setByDataHora(DataHora a){
	this->dia = a.dia;
     568:	05 87       	std	Z+13, r16	; 0x0d
	this->mes = a.mes;
     56a:	16 87       	std	Z+14, r17	; 0x0e
	this->hora = a.hora;
     56c:	27 87       	std	Z+15, r18	; 0x0f
	this->min = a.min;
     56e:	90 8b       	std	Z+16, r25	; 0x10
	this->seg = a.seg;
     570:	81 8b       	std	Z+17, r24	; 0x11
}

int Veiculo::pagar(int valor, DataHora agora){
	if(valor > 0)
		this->dataPagamento.setByDataHora(agora);
	this->valorpago += valor;
     572:	82 89       	ldd	r24, Z+18	; 0x12
     574:	93 89       	ldd	r25, Z+19	; 0x13
     576:	86 0f       	add	r24, r22
     578:	97 1f       	adc	r25, r23
     57a:	93 8b       	std	Z+19, r25	; 0x13
     57c:	82 8b       	std	Z+18, r24	; 0x12
	return this->valorpago;
}
     57e:	0f 90       	pop	r0
     580:	0f 90       	pop	r0
     582:	0f 90       	pop	r0
     584:	0f 90       	pop	r0
     586:	0f 90       	pop	r0
     588:	df 91       	pop	r29
     58a:	cf 91       	pop	r28
     58c:	1f 91       	pop	r17
     58e:	0f 91       	pop	r16
     590:	08 95       	ret

00000592 <_ZN7Veiculo10ehEspecialEv>:

char Veiculo::ehEspecial(){
     592:	fc 01       	movw	r30, r24
	//retorna 1 se placa começa com IDE e 0 caso contrário
	if(	this->placa[0] != 'I')
     594:	80 81       	ld	r24, Z
     596:	89 34       	cpi	r24, 0x49	; 73
     598:	49 f4       	brne	.+18     	; 0x5ac <_ZN7Veiculo10ehEspecialEv+0x1a>
		return 0;
	if( this->placa[1] != 'D')
     59a:	81 81       	ldd	r24, Z+1	; 0x01
     59c:	84 34       	cpi	r24, 0x44	; 68
     59e:	41 f4       	brne	.+16     	; 0x5b0 <_ZN7Veiculo10ehEspecialEv+0x1e>
}

char Veiculo::ehEspecial(){
	//retorna 1 se placa começa com IDE e 0 caso contrário
	if(	this->placa[0] != 'I')
		return 0;
     5a0:	81 e0       	ldi	r24, 0x01	; 1
     5a2:	92 81       	ldd	r25, Z+2	; 0x02
     5a4:	95 34       	cpi	r25, 0x45	; 69
     5a6:	29 f0       	breq	.+10     	; 0x5b2 <_ZN7Veiculo10ehEspecialEv+0x20>
     5a8:	80 e0       	ldi	r24, 0x00	; 0
     5aa:	08 95       	ret
     5ac:	80 e0       	ldi	r24, 0x00	; 0
     5ae:	08 95       	ret
	if( this->placa[1] != 'D')
		return 0;
     5b0:	80 e0       	ldi	r24, 0x00	; 0
	if(this->placa[2] != 'E')
		return 0;
	return 1;
}
     5b2:	08 95       	ret

000005b4 <_ZN7Veiculo12ehPlacaIgualEPc>:

char Veiculo::ehPlacaIgual(char compara[]){ 
	//retorna 1 se placa for igual ao parâmetro compara
	for(int i=0; i<7; i++){
		if(compara[i] != this->placa[i])
     5b4:	fb 01       	movw	r30, r22
     5b6:	30 81       	ld	r19, Z
     5b8:	fc 01       	movw	r30, r24
     5ba:	20 81       	ld	r18, Z
     5bc:	32 13       	cpse	r19, r18
     5be:	0f c0       	rjmp	.+30     	; 0x5de <_ZN7Veiculo12ehPlacaIgualEPc+0x2a>
     5c0:	fb 01       	movw	r30, r22
     5c2:	31 96       	adiw	r30, 0x01	; 1
     5c4:	dc 01       	movw	r26, r24
     5c6:	11 96       	adiw	r26, 0x01	; 1
     5c8:	69 5f       	subi	r22, 0xF9	; 249
     5ca:	7f 4f       	sbci	r23, 0xFF	; 255
     5cc:	91 91       	ld	r25, Z+
     5ce:	8d 91       	ld	r24, X+
     5d0:	98 13       	cpse	r25, r24
     5d2:	07 c0       	rjmp	.+14     	; 0x5e2 <_ZN7Veiculo12ehPlacaIgualEPc+0x2e>
	return 1;
}

char Veiculo::ehPlacaIgual(char compara[]){ 
	//retorna 1 se placa for igual ao parâmetro compara
	for(int i=0; i<7; i++){
     5d4:	e6 17       	cp	r30, r22
     5d6:	f7 07       	cpc	r31, r23
     5d8:	c9 f7       	brne	.-14     	; 0x5cc <_ZN7Veiculo12ehPlacaIgualEPc+0x18>
		if(compara[i] != this->placa[i])
			return 0;
	}
	return 1;
     5da:	81 e0       	ldi	r24, 0x01	; 1
     5dc:	08 95       	ret

char Veiculo::ehPlacaIgual(char compara[]){ 
	//retorna 1 se placa for igual ao parâmetro compara
	for(int i=0; i<7; i++){
		if(compara[i] != this->placa[i])
			return 0;
     5de:	80 e0       	ldi	r24, 0x00	; 0
     5e0:	08 95       	ret
     5e2:	80 e0       	ldi	r24, 0x00	; 0
	}
	return 1;
}
     5e4:	08 95       	ret

000005e6 <_ZN7Veiculo8setPlacaEPc>:

void Veiculo::setPlaca(char _placa[]){
     5e6:	cf 93       	push	r28
     5e8:	df 93       	push	r29
     5ea:	ec 01       	movw	r28, r24
     5ec:	fb 01       	movw	r30, r22
     5ee:	dc 01       	movw	r26, r24
     5f0:	9b 01       	movw	r18, r22
     5f2:	29 5f       	subi	r18, 0xF9	; 249
     5f4:	3f 4f       	sbci	r19, 0xFF	; 255
	for(int i=0; i<7; i++){
		this->placa[i] = _placa[i];
     5f6:	91 91       	ld	r25, Z+
     5f8:	9d 93       	st	X+, r25
	}
	return 1;
}

void Veiculo::setPlaca(char _placa[]){
	for(int i=0; i<7; i++){
     5fa:	e2 17       	cp	r30, r18
     5fc:	f3 07       	cpc	r31, r19
     5fe:	d9 f7       	brne	.-10     	; 0x5f6 <_ZN7Veiculo8setPlacaEPc+0x10>
		this->placa[i] = _placa[i];
	}
	placa[7]='\0';
     600:	1f 82       	std	Y+7, r1	; 0x07
}
     602:	df 91       	pop	r29
     604:	cf 91       	pop	r28
     606:	08 95       	ret

00000608 <_Z9porta_lcdc>:
#include <avr/io.h>
#include <string.h>
#include "atraso.h"

void porta_lcd(char data_display){ // escreve na porta de dados
	PORTC |=  (1<<6);     // E = 1
     608:	46 9a       	sbi	0x08, 6	; 8
	PORTA = data_display; //dados
     60a:	82 b9       	out	0x02, r24	; 2
	unsigned char i;
	for (i= 0; i<8; i++)
	{
		i++;
	}
	PORTC &= ~(1<<6);     // E = 0
     60c:	46 98       	cbi	0x08, 6	; 8
	atrasous(40);
     60e:	88 e2       	ldi	r24, 0x28	; 40
     610:	90 e0       	ldi	r25, 0x00	; 0
     612:	c4 cd       	rjmp	.-1144   	; 0x19c <_Z8atrasousj>
     614:	08 95       	ret

00000616 <_Z11lcd_comandoc>:
}

void lcd_comando(char data_display){
	PORTC &= ~(1<<7); // RS = 0
     616:	47 98       	cbi	0x08, 7	; 8
	porta_lcd(data_display);
     618:	f7 cf       	rjmp	.-18     	; 0x608 <_Z9porta_lcdc>
     61a:	08 95       	ret

0000061c <_Z12lcdWritecharc>:
}

void lcdWritechar(char data_display){
	PORTC |=  (1<<7); // RS = 1
     61c:	47 9a       	sbi	0x08, 7	; 8
	porta_lcd(data_display);
     61e:	f4 cf       	rjmp	.-24     	; 0x608 <_Z9porta_lcdc>
     620:	08 95       	ret

00000622 <_Z13clear_displayv>:
}

void clear_display(){
	lcd_comando(0x01);
     622:	81 e0       	ldi	r24, 0x01	; 1
     624:	f8 df       	rcall	.-16     	; 0x616 <_Z11lcd_comandoc>
	atrasous(1650);
     626:	82 e7       	ldi	r24, 0x72	; 114
     628:	96 e0       	ldi	r25, 0x06	; 6
     62a:	b8 cd       	rjmp	.-1168   	; 0x19c <_Z8atrasousj>
     62c:	08 95       	ret

0000062e <_Z10lcd_configv>:
}

void lcd_config(){
		DDRA = 0xFF;   //dados
     62e:	8f ef       	ldi	r24, 0xFF	; 255
     630:	81 b9       	out	0x01, r24	; 1
		DDRC |= (1<<6);//E
     632:	3e 9a       	sbi	0x07, 6	; 7
		DDRC |= (1<<7);//RS
     634:	3f 9a       	sbi	0x07, 7	; 7
	//atrasoms(15);      //esperar HD44780 zerar a busy flag 
	lcd_comando(0x38); //function set
     636:	88 e3       	ldi	r24, 0x38	; 56
     638:	ee df       	rcall	.-36     	; 0x616 <_Z11lcd_comandoc>
	lcd_comando(0x0E); //display control
     63a:	8e e0       	ldi	r24, 0x0E	; 14
     63c:	ec df       	rcall	.-40     	; 0x616 <_Z11lcd_comandoc>
	lcd_comando(0x06); //entry mode set
     63e:	86 e0       	ldi	r24, 0x06	; 6
     640:	ea df       	rcall	.-44     	; 0x616 <_Z11lcd_comandoc>
	clear_display();
     642:	ef cf       	rjmp	.-34     	; 0x622 <_Z13clear_displayv>
     644:	08 95       	ret

00000646 <_Z9setCursorjj>:
     646:	0f 93       	push	r16
}

void setCursor(unsigned int coluna, unsigned int linha){
     648:	1f 93       	push	r17
     64a:	cf 93       	push	r28
     64c:	df 93       	push	r29
     64e:	8c 01       	movw	r16, r24
     650:	eb 01       	movw	r28, r22
	lcd_comando(0x80); //coloca o cursor na linha 0
     652:	80 e8       	ldi	r24, 0x80	; 128
     654:	e0 df       	rcall	.-64     	; 0x616 <_Z11lcd_comandoc>
	int i = 0;
	if(linha == 1) lcd_comando(0xC0); //coloca o cursor na linha 1
     656:	21 97       	sbiw	r28, 0x01	; 1
     658:	11 f4       	brne	.+4      	; 0x65e <_Z9setCursorjj+0x18>
     65a:	80 ec       	ldi	r24, 0xC0	; 192
     65c:	dc df       	rcall	.-72     	; 0x616 <_Z11lcd_comandoc>
	while(i < coluna){      //desloca o cursor para a direita até atingir a coluna desejada
     65e:	01 15       	cp	r16, r1
     660:	11 05       	cpc	r17, r1
     662:	41 f0       	breq	.+16     	; 0x674 <_Z9setCursorjj+0x2e>
     664:	c0 e0       	ldi	r28, 0x00	; 0
		lcd_comando(0x14);
     666:	d0 e0       	ldi	r29, 0x00	; 0
     668:	84 e1       	ldi	r24, 0x14	; 20
     66a:	d5 df       	rcall	.-86     	; 0x616 <_Z11lcd_comandoc>
		i++;
     66c:	21 96       	adiw	r28, 0x01	; 1

void setCursor(unsigned int coluna, unsigned int linha){
	lcd_comando(0x80); //coloca o cursor na linha 0
	int i = 0;
	if(linha == 1) lcd_comando(0xC0); //coloca o cursor na linha 1
	while(i < coluna){      //desloca o cursor para a direita até atingir a coluna desejada
     66e:	c0 17       	cp	r28, r16
     670:	d1 07       	cpc	r29, r17
     672:	d1 f7       	brne	.-12     	; 0x668 <_Z9setCursorjj+0x22>
		lcd_comando(0x14);
		i++;
	}
}
     674:	df 91       	pop	r29
     676:	cf 91       	pop	r28
     678:	1f 91       	pop	r17
     67a:	0f 91       	pop	r16
     67c:	08 95       	ret

0000067e <_Z8lcdWritePc>:

void lcdWrite(char string1[16]){ //máximo 16 caracteres, tamanho da linha do display
     67e:	0f 93       	push	r16
     680:	1f 93       	push	r17
     682:	cf 93       	push	r28
     684:	df 93       	push	r29
     686:	ec 01       	movw	r28, r24
     688:	fc 01       	movw	r30, r24
     68a:	31 96       	adiw	r30, 0x01	; 1
	unsigned int tamanho = 0, i;
     68c:	20 e0       	ldi	r18, 0x00	; 0
     68e:	30 e0       	ldi	r19, 0x00	; 0
	do{ //mede o tamanho da string
		tamanho++;
     690:	2f 5f       	subi	r18, 0xFF	; 255
     692:	3f 4f       	sbci	r19, 0xFF	; 255
	} while(string1[tamanho] != '\0'); 
     694:	91 91       	ld	r25, Z+
     696:	91 11       	cpse	r25, r1
     698:	fb cf       	rjmp	.-10     	; 0x690 <_Z8lcdWritePc+0x12>
	for(i = 0; i< tamanho; i++) lcdWritechar(string1[i]); //print
     69a:	21 15       	cp	r18, r1
     69c:	31 05       	cpc	r19, r1
     69e:	51 f0       	breq	.+20     	; 0x6b4 <_Z8lcdWritePc+0x36>
     6a0:	8e 01       	movw	r16, r28
     6a2:	c2 0f       	add	r28, r18
     6a4:	d3 1f       	adc	r29, r19
     6a6:	f8 01       	movw	r30, r16
     6a8:	81 91       	ld	r24, Z+
     6aa:	8f 01       	movw	r16, r30
     6ac:	b7 df       	rcall	.-146    	; 0x61c <_Z12lcdWritecharc>
     6ae:	0c 17       	cp	r16, r28
     6b0:	1d 07       	cpc	r17, r29
     6b2:	c9 f7       	brne	.-14     	; 0x6a6 <_Z8lcdWritePc+0x28>
}
     6b4:	df 91       	pop	r29
     6b6:	cf 91       	pop	r28
     6b8:	1f 91       	pop	r17
     6ba:	0f 91       	pop	r16
     6bc:	08 95       	ret

000006be <_Z11lcdWritePosPccc>:

void lcdWritePos(char string1[16],char coluna , char linha){
     6be:	cf 93       	push	r28
     6c0:	df 93       	push	r29
     6c2:	ec 01       	movw	r28, r24
     6c4:	86 2f       	mov	r24, r22
	setCursor(coluna, linha);
     6c6:	64 2f       	mov	r22, r20
     6c8:	70 e0       	ldi	r23, 0x00	; 0
     6ca:	90 e0       	ldi	r25, 0x00	; 0
     6cc:	bc df       	rcall	.-136    	; 0x646 <_Z9setCursorjj>
	lcdWrite(string1);
     6ce:	ce 01       	movw	r24, r28
     6d0:	d6 df       	rcall	.-84     	; 0x67e <_Z8lcdWritePc>
}
     6d2:	df 91       	pop	r29
     6d4:	cf 91       	pop	r28
     6d6:	08 95       	ret

000006d8 <_Z15lcdWritecharPosccc>:

void lcdWritecharPos(char c, char coluna, char linha){
     6d8:	cf 93       	push	r28
     6da:	c8 2f       	mov	r28, r24
     6dc:	86 2f       	mov	r24, r22
	setCursor(coluna, linha);
     6de:	64 2f       	mov	r22, r20
     6e0:	70 e0       	ldi	r23, 0x00	; 0
     6e2:	90 e0       	ldi	r25, 0x00	; 0
     6e4:	b0 df       	rcall	.-160    	; 0x646 <_Z9setCursorjj>
	lcdWritechar(c);
     6e6:	8c 2f       	mov	r24, r28
     6e8:	99 df       	rcall	.-206    	; 0x61c <_Z12lcdWritecharc>
     6ea:	cf 91       	pop	r28
     6ec:	08 95       	ret

000006ee <__vector_20>:
char tempoMostraAndares=0;
char tempoCancela1Aberta=0;
char tempoCancela2Aberta=0;
*/

ISR(TIMER1_OVF_vect){
     6ee:	1f 92       	push	r1
     6f0:	0f 92       	push	r0
     6f2:	0f b6       	in	r0, 0x3f	; 63
     6f4:	0f 92       	push	r0
     6f6:	11 24       	eor	r1, r1
     6f8:	0b b6       	in	r0, 0x3b	; 59
     6fa:	0f 92       	push	r0
     6fc:	2f 93       	push	r18
     6fe:	3f 93       	push	r19
     700:	4f 93       	push	r20
     702:	5f 93       	push	r21
     704:	6f 93       	push	r22
     706:	7f 93       	push	r23
     708:	8f 93       	push	r24
     70a:	9f 93       	push	r25
     70c:	af 93       	push	r26
     70e:	bf 93       	push	r27
     710:	ef 93       	push	r30
     712:	ff 93       	push	r31
	TCNT1 = 3036; //1s até estourar
     714:	8c ed       	ldi	r24, 0xDC	; 220
     716:	9b e0       	ldi	r25, 0x0B	; 11
     718:	90 93 85 00 	sts	0x0085, r25	; 0x800085 <__TEXT_REGION_LENGTH__+0x7c0085>
     71c:	80 93 84 00 	sts	0x0084, r24	; 0x800084 <__TEXT_REGION_LENGTH__+0x7c0084>
	// 65536 - 16M/256 = 3036
	relogio.incSeg();
     720:	61 e0       	ldi	r22, 0x01	; 1
     722:	8e e2       	ldi	r24, 0x2E	; 46
     724:	93 e0       	ldi	r25, 0x03	; 3
     726:	0d de       	rcall	.-998    	; 0x342 <_ZN8DataHora6incSegEc>

/*	tempoMostraAndares=0;
	tempoCancela1Aberta++;
	tempoCancela2Aberta++;
*/
}
     728:	ff 91       	pop	r31
     72a:	ef 91       	pop	r30
     72c:	bf 91       	pop	r27
     72e:	af 91       	pop	r26
     730:	9f 91       	pop	r25
     732:	8f 91       	pop	r24
     734:	7f 91       	pop	r23
     736:	6f 91       	pop	r22
     738:	5f 91       	pop	r21
     73a:	4f 91       	pop	r20
     73c:	3f 91       	pop	r19
     73e:	2f 91       	pop	r18
     740:	0f 90       	pop	r0
     742:	0b be       	out	0x3b, r0	; 59
     744:	0f 90       	pop	r0
     746:	0f be       	out	0x3f, r0	; 63
     748:	0f 90       	pop	r0
     74a:	1f 90       	pop	r1
     74c:	18 95       	reti

0000074e <_Z13timer1_configv>:


void timer1_config(){//chamar essa função antes do loop da main
	TIMSK1 = (1<<0); // habilita interrupção no timer 1
     74e:	81 e0       	ldi	r24, 0x01	; 1
     750:	80 93 6f 00 	sts	0x006F, r24	; 0x80006f <__TEXT_REGION_LENGTH__+0x7c006f>
	sei();           // habilita interrupções no chip
     754:	78 94       	sei
	TCCR1A = 0;
     756:	10 92 80 00 	sts	0x0080, r1	; 0x800080 <__TEXT_REGION_LENGTH__+0x7c0080>
	TCCR1B = 0x04;   //PRESCALER 256
     75a:	84 e0       	ldi	r24, 0x04	; 4
     75c:	80 93 81 00 	sts	0x0081, r24	; 0x800081 <__TEXT_REGION_LENGTH__+0x7c0081>
     760:	08 95       	ret

00000762 <_GLOBAL__sub_I_relogio>:
}
     762:	0f 93       	push	r16

#include <avr/io.h>
#include <avr/interrupt.h>
#include "classes.h"

DataHora relogio(1,1,6,0); // dia mes hora minuto
     764:	00 e0       	ldi	r16, 0x00	; 0
     766:	26 e0       	ldi	r18, 0x06	; 6
     768:	41 e0       	ldi	r20, 0x01	; 1
     76a:	61 e0       	ldi	r22, 0x01	; 1
     76c:	8e e2       	ldi	r24, 0x2E	; 46
     76e:	93 e0       	ldi	r25, 0x03	; 3
     770:	24 dd       	rcall	.-1464   	; 0x1ba <_ZN8DataHoraC1Ecccc>
void timer1_config(){//chamar essa função antes do loop da main
	TIMSK1 = (1<<0); // habilita interrupção no timer 1
	sei();           // habilita interrupções no chip
	TCCR1A = 0;
	TCCR1B = 0x04;   //PRESCALER 256
}
     772:	0f 91       	pop	r16
     774:	08 95       	ret

00000776 <_Z11desbloqueiav>:
	for(int i=0; i<n; i++){
		if(le() != respostaEsperada[i]){
			erro(mensagem);
		}
	}
}
     776:	10 92 01 02 	sts	0x0201, r1	; 0x800201 <estado>
     77a:	81 e0       	ldi	r24, 0x01	; 1
     77c:	80 93 00 02 	sts	0x0200, r24	; 0x800200 <__DATA_REGION_ORIGIN__>
     780:	80 93 fb 0d 	sts	0x0DFB, r24	; 0x800dfb <desbloqueado>
     784:	08 95       	ret

00000786 <_Z11cancelaAbrec>:
     786:	cf 93       	push	r28
     788:	c8 2f       	mov	r28, r24
     78a:	62 e0       	ldi	r22, 0x02	; 2
     78c:	70 e0       	ldi	r23, 0x00	; 0
     78e:	86 e1       	ldi	r24, 0x16	; 22
     790:	92 e0       	ldi	r25, 0x02	; 2
     792:	66 d7       	rcall	.+3788   	; 0x1660 <_Z12escreveVetorPci>
     794:	8c 2f       	mov	r24, r28
     796:	48 d7       	rcall	.+3728   	; 0x1628 <_Z7escrevec>
     798:	82 e0       	ldi	r24, 0x02	; 2
     79a:	90 e0       	ldi	r25, 0x00	; 0
     79c:	f0 dc       	rcall	.-1568   	; 0x17e <_Z8atrasomsj>
     79e:	cf 91       	pop	r28
     7a0:	08 95       	ret

000007a2 <_Z12cancelaFechac>:
     7a2:	cf 93       	push	r28
     7a4:	c8 2f       	mov	r28, r24
     7a6:	62 e0       	ldi	r22, 0x02	; 2
     7a8:	70 e0       	ldi	r23, 0x00	; 0
     7aa:	89 e1       	ldi	r24, 0x19	; 25
     7ac:	92 e0       	ldi	r25, 0x02	; 2
     7ae:	58 d7       	rcall	.+3760   	; 0x1660 <_Z12escreveVetorPci>
     7b0:	8c 2f       	mov	r24, r28
     7b2:	3a d7       	rcall	.+3700   	; 0x1628 <_Z7escrevec>
     7b4:	82 e0       	ldi	r24, 0x02	; 2
     7b6:	90 e0       	ldi	r25, 0x00	; 0
     7b8:	e2 dc       	rcall	.-1596   	; 0x17e <_Z8atrasomsj>
     7ba:	cf 91       	pop	r28
     7bc:	08 95       	ret

000007be <_Z8bloqueiav>:
     7be:	81 e3       	ldi	r24, 0x31	; 49
     7c0:	f0 df       	rcall	.-32     	; 0x7a2 <_Z12cancelaFechac>
     7c2:	82 e3       	ldi	r24, 0x32	; 50
     7c4:	ee df       	rcall	.-36     	; 0x7a2 <_Z12cancelaFechac>
     7c6:	85 e0       	ldi	r24, 0x05	; 5
     7c8:	80 93 01 02 	sts	0x0201, r24	; 0x800201 <estado>
     7cc:	81 e0       	ldi	r24, 0x01	; 1
     7ce:	80 93 00 02 	sts	0x0200, r24	; 0x800200 <__DATA_REGION_ORIGIN__>
     7d2:	10 92 fb 0d 	sts	0x0DFB, r1	; 0x800dfb <desbloqueado>
     7d6:	08 95       	ret

000007d8 <_Z12procuraPlacaPc>:

int procuraPlaca(char placaProcurada[]){
     7d8:	ef 92       	push	r14
     7da:	ff 92       	push	r15
     7dc:	0f 93       	push	r16
     7de:	1f 93       	push	r17
     7e0:	cf 93       	push	r28
     7e2:	df 93       	push	r29
     7e4:	7c 01       	movw	r14, r24
     7e6:	03 e3       	ldi	r16, 0x33	; 51
     7e8:	13 e0       	ldi	r17, 0x03	; 3
	for(int i=0; i<120; i++){
     7ea:	c0 e0       	ldi	r28, 0x00	; 0
     7ec:	d0 e0       	ldi	r29, 0x00	; 0
		if(carros[i].ehPlacaIgual(placaProcurada))
     7ee:	b7 01       	movw	r22, r14
     7f0:	c8 01       	movw	r24, r16
     7f2:	e0 de       	rcall	.-576    	; 0x5b4 <_ZN7Veiculo12ehPlacaIgualEPc>
     7f4:	81 11       	cpse	r24, r1
     7f6:	09 c0       	rjmp	.+18     	; 0x80a <_Z12procuraPlacaPc+0x32>
		}
	}
}

int procuraPlaca(char placaProcurada[]){
	for(int i=0; i<120; i++){
     7f8:	21 96       	adiw	r28, 0x01	; 1
     7fa:	09 5e       	subi	r16, 0xE9	; 233
     7fc:	1f 4f       	sbci	r17, 0xFF	; 255
     7fe:	c8 37       	cpi	r28, 0x78	; 120
     800:	d1 05       	cpc	r29, r1
     802:	a9 f7       	brne	.-22     	; 0x7ee <_Z12procuraPlacaPc+0x16>
		if(carros[i].ehPlacaIgual(placaProcurada))
			return i;
	}
	return -1;
     804:	8f ef       	ldi	r24, 0xFF	; 255
     806:	9f ef       	ldi	r25, 0xFF	; 255
     808:	02 c0       	rjmp	.+4      	; 0x80e <_Z12procuraPlacaPc+0x36>
     80a:	8c 2f       	mov	r24, r28
     80c:	9d 2f       	mov	r25, r29
}
     80e:	df 91       	pop	r29
     810:	cf 91       	pop	r28
     812:	1f 91       	pop	r17
     814:	0f 91       	pop	r16
     816:	ff 90       	pop	r15
     818:	ef 90       	pop	r14
     81a:	08 95       	ret

0000081c <_Z8pedeMapac>:

void pedeMapa(char c){
     81c:	cf 93       	push	r28
     81e:	c8 2f       	mov	r28, r24
	escreveVetor("EM",2);
     820:	62 e0       	ldi	r22, 0x02	; 2
     822:	70 e0       	ldi	r23, 0x00	; 0
     824:	8f e1       	ldi	r24, 0x1F	; 31
     826:	92 e0       	ldi	r25, 0x02	; 2
     828:	1b d7       	rcall	.+3638   	; 0x1660 <_Z12escreveVetorPci>
	escreve(c);
     82a:	8c 2f       	mov	r24, r28
     82c:	fd d6       	rcall	.+3578   	; 0x1628 <_Z7escrevec>
}
     82e:	cf 91       	pop	r28
     830:	08 95       	ret

00000832 <_Z9countMapaPA5_cPcc>:

char countMapa(char mapa[3][5], char contAndar[3], char c){
     832:	cf 93       	push	r28
     834:	df 93       	push	r29
     836:	fc 01       	movw	r30, r24
	char cont = 0;
	char andar = -1;
	switch(c){
     838:	41 33       	cpi	r20, 0x31	; 49
     83a:	29 f0       	breq	.+10     	; 0x846 <_Z9countMapaPA5_cPcc+0x14>
     83c:	42 33       	cpi	r20, 0x32	; 50
     83e:	21 f1       	breq	.+72     	; 0x888 <_Z9countMapaPA5_cPcc+0x56>
     840:	40 33       	cpi	r20, 0x30	; 48
     842:	c9 f4       	brne	.+50     	; 0x876 <_Z9countMapaPA5_cPcc+0x44>
     844:	1f c0       	rjmp	.+62     	; 0x884 <_Z9countMapaPA5_cPcc+0x52>
		case '0':
			andar = 0;
			break;
		case '1':
			andar = 1;
     846:	91 e0       	ldi	r25, 0x01	; 1
     848:	20 c0       	rjmp	.+64     	; 0x88a <_Z9countMapaPA5_cPcc+0x58>
			break;
	}
	if(andar != (char)-1){
		for(int i=0; i<5; i++){
			for(int j=0; j<8; j++){
				if(mapa[andar][i] & (1<<j)){
     84a:	ed 91       	ld	r30, X+
     84c:	f0 e0       	ldi	r31, 0x00	; 0
     84e:	20 e0       	ldi	r18, 0x00	; 0
     850:	30 e0       	ldi	r19, 0x00	; 0
     852:	af 01       	movw	r20, r30
     854:	02 2e       	mov	r0, r18
     856:	02 c0       	rjmp	.+4      	; 0x85c <_Z9countMapaPA5_cPcc+0x2a>
     858:	55 95       	asr	r21
     85a:	47 95       	ror	r20
     85c:	0a 94       	dec	r0
     85e:	e2 f7       	brpl	.-8      	; 0x858 <_Z9countMapaPA5_cPcc+0x26>
     860:	40 fd       	sbrc	r20, 0
					cont++;
     862:	8f 5f       	subi	r24, 0xFF	; 255
			andar = 2;
			break;
	}
	if(andar != (char)-1){
		for(int i=0; i<5; i++){
			for(int j=0; j<8; j++){
     864:	2f 5f       	subi	r18, 0xFF	; 255
     866:	3f 4f       	sbci	r19, 0xFF	; 255
     868:	28 30       	cpi	r18, 0x08	; 8
     86a:	31 05       	cpc	r19, r1
     86c:	91 f7       	brne	.-28     	; 0x852 <_Z9countMapaPA5_cPcc+0x20>
		case '2':
			andar = 2;
			break;
	}
	if(andar != (char)-1){
		for(int i=0; i<5; i++){
     86e:	ac 17       	cp	r26, r28
     870:	bd 07       	cpc	r27, r29
     872:	59 f7       	brne	.-42     	; 0x84a <_Z9countMapaPA5_cPcc+0x18>
     874:	02 c0       	rjmp	.+4      	; 0x87a <_Z9countMapaPA5_cPcc+0x48>
	escreve(c);
}

char countMapa(char mapa[3][5], char contAndar[3], char c){
	char cont = 0;
	char andar = -1;
     876:	9f ef       	ldi	r25, 0xFF	; 255
	escreveVetor("EM",2);
	escreve(c);
}

char countMapa(char mapa[3][5], char contAndar[3], char c){
	char cont = 0;
     878:	80 e0       	ldi	r24, 0x00	; 0
					cont++;
				}
			}
		}
	}
	contAndar[andar] = cont;
     87a:	fb 01       	movw	r30, r22
     87c:	e9 0f       	add	r30, r25
     87e:	f1 1d       	adc	r31, r1
     880:	80 83       	st	Z, r24
	return cont;
     882:	13 c0       	rjmp	.+38     	; 0x8aa <_Z9countMapaPA5_cPcc+0x78>
char countMapa(char mapa[3][5], char contAndar[3], char c){
	char cont = 0;
	char andar = -1;
	switch(c){
		case '0':
			andar = 0;
     884:	90 e0       	ldi	r25, 0x00	; 0
     886:	01 c0       	rjmp	.+2      	; 0x88a <_Z9countMapaPA5_cPcc+0x58>
			break;
		case '1':
			andar = 1;
			break;
		case '2':
			andar = 2;
     888:	92 e0       	ldi	r25, 0x02	; 2
			break;
	}
	if(andar != (char)-1){
		for(int i=0; i<5; i++){
			for(int j=0; j<8; j++){
				if(mapa[andar][i] & (1<<j)){
     88a:	29 2f       	mov	r18, r25
     88c:	30 e0       	ldi	r19, 0x00	; 0
     88e:	d9 01       	movw	r26, r18
     890:	aa 0f       	add	r26, r26
     892:	bb 1f       	adc	r27, r27
     894:	aa 0f       	add	r26, r26
     896:	bb 1f       	adc	r27, r27
     898:	2a 0f       	add	r18, r26
     89a:	3b 1f       	adc	r19, r27
     89c:	df 01       	movw	r26, r30
     89e:	a2 0f       	add	r26, r18
     8a0:	b3 1f       	adc	r27, r19
     8a2:	ed 01       	movw	r28, r26
     8a4:	25 96       	adiw	r28, 0x05	; 5
     8a6:	80 e0       	ldi	r24, 0x00	; 0
     8a8:	d0 cf       	rjmp	.-96     	; 0x84a <_Z9countMapaPA5_cPcc+0x18>
			}
		}
	}
	contAndar[andar] = cont;
	return cont;
}
     8aa:	df 91       	pop	r29
     8ac:	cf 91       	pop	r28
     8ae:	08 95       	ret

000008b0 <_Z11escreveNota7Veiculo>:
void escreveNota(Veiculo carro){
     8b0:	cf 93       	push	r28
     8b2:	df 93       	push	r29
     8b4:	00 d0       	rcall	.+0      	; 0x8b6 <_Z11escreveNota7Veiculo+0x6>
     8b6:	1f 92       	push	r1
     8b8:	cd b7       	in	r28, 0x3d	; 61
     8ba:	de b7       	in	r29, 0x3e	; 62

char pagamento[4];

escreveVetor("EI",2);
     8bc:	62 e0       	ldi	r22, 0x02	; 2
     8be:	70 e0       	ldi	r23, 0x00	; 0
     8c0:	82 e2       	ldi	r24, 0x22	; 34
     8c2:	92 e0       	ldi	r25, 0x02	; 2
     8c4:	cd d6       	rcall	.+3482   	; 0x1660 <_Z12escreveVetorPci>
escreve(0);
     8c6:	80 e0       	ldi	r24, 0x00	; 0
     8c8:	af d6       	rcall	.+3422   	; 0x1628 <_Z7escrevec>
escreve(16);
     8ca:	80 e1       	ldi	r24, 0x10	; 16
     8cc:	ad d6       	rcall	.+3418   	; 0x1628 <_Z7escrevec>
     8ce:	68 e0       	ldi	r22, 0x08	; 8


escreveVetor(carro.placa,8);
     8d0:	70 e0       	ldi	r23, 0x00	; 0
     8d2:	ce 01       	movw	r24, r28
     8d4:	0a 96       	adiw	r24, 0x0a	; 10
     8d6:	c4 d6       	rcall	.+3464   	; 0x1660 <_Z12escreveVetorPci>
     8d8:	4a e0       	ldi	r20, 0x0A	; 10
    } else if (__radix < 2 || __radix > 36) {
	*__s = 0;
	return __s;
    } else {
	extern char *__itoa_ncheck (int, char *, unsigned char);
	return __itoa_ncheck (__val, __s, __radix);
     8da:	be 01       	movw	r22, r28
     8dc:	6f 5f       	subi	r22, 0xFF	; 255
     8de:	7f 4f       	sbci	r23, 0xFF	; 255
     8e0:	8c 8d       	ldd	r24, Y+28	; 0x1c
     8e2:	9d 8d       	ldd	r25, Y+29	; 0x1d
     8e4:	0e 94 aa 0c 	call	0x1954	; 0x1954 <__itoa_ncheck>
     8e8:	64 e0       	ldi	r22, 0x04	; 4
itoa(carro.valorpago,pagamento,10);
escreveVetor(pagamento,4);
     8ea:	70 e0       	ldi	r23, 0x00	; 0
     8ec:	ce 01       	movw	r24, r28
     8ee:	01 96       	adiw	r24, 0x01	; 1
     8f0:	b7 d6       	rcall	.+3438   	; 0x1660 <_Z12escreveVetorPci>
     8f2:	64 e0       	ldi	r22, 0x04	; 4
escreveVetor("aaaa",4);
     8f4:	70 e0       	ldi	r23, 0x00	; 0
     8f6:	85 e2       	ldi	r24, 0x25	; 37
     8f8:	92 e0       	ldi	r25, 0x02	; 2
     8fa:	b2 d6       	rcall	.+3428   	; 0x1660 <_Z12escreveVetorPci>
     8fc:	0f 90       	pop	r0
     8fe:	0f 90       	pop	r0
};
     900:	0f 90       	pop	r0
     902:	0f 90       	pop	r0
     904:	df 91       	pop	r29
     906:	cf 91       	pop	r28
     908:	08 95       	ret

0000090a <main>:
     90a:	cf 93       	push	r28
     90c:	df 93       	push	r29

Veiculo carros[120]; //máximo 120 carros no estacionamento


int main(void)
{   // saindo da entrada = entrando no estacionamento
     90e:	cd b7       	in	r28, 0x3d	; 61
     910:	de b7       	in	r29, 0x3e	; 62
     912:	c5 5c       	subi	r28, 0xC5	; 197
     914:	d1 09       	sbc	r29, r1
     916:	0f b6       	in	r0, 0x3f	; 63
     918:	f8 94       	cli
     91a:	de bf       	out	0x3e, r29	; 62
     91c:	0f be       	out	0x3f, r0	; 63
     91e:	cd bf       	out	0x3d, r28	; 61
	char byteLido;
	char vetor[64];	
	char tmp;
	
	int carroEntrada=-1;
	DataHora horaCarroEntrada;
     920:	00 e0       	ldi	r16, 0x00	; 0
     922:	20 e0       	ldi	r18, 0x00	; 0
     924:	41 e0       	ldi	r20, 0x01	; 1
     926:	61 e0       	ldi	r22, 0x01	; 1
     928:	ce 01       	movw	r24, r28
     92a:	8f 5b       	subi	r24, 0xBF	; 191
     92c:	9f 4f       	sbci	r25, 0xFF	; 255
     92e:	45 dc       	rcall	.-1910   	; 0x1ba <_ZN8DataHoraC1Ecccc>
	int carroSaida=-1;
	DataHora horaCarroSaida;
     930:	20 e0       	ldi	r18, 0x00	; 0
     932:	41 e0       	ldi	r20, 0x01	; 1
     934:	61 e0       	ldi	r22, 0x01	; 1
     936:	ce 01       	movw	r24, r28
     938:	8a 5b       	subi	r24, 0xBA	; 186
     93a:	9f 4f       	sbci	r25, 0xFF	; 255
     93c:	3e dc       	rcall	.-1924   	; 0x1ba <_ZN8DataHoraC1Ecccc>
	DataHora horaLetreiro;
     93e:	20 e0       	ldi	r18, 0x00	; 0
     940:	41 e0       	ldi	r20, 0x01	; 1
     942:	61 e0       	ldi	r22, 0x01	; 1
     944:	ce 01       	movw	r24, r28
     946:	85 5b       	subi	r24, 0xB5	; 181
     948:	9f 4f       	sbci	r25, 0xFF	; 255
     94a:	37 dc       	rcall	.-1938   	; 0x1ba <_ZN8DataHoraC1Ecccc>
     94c:	fe 01       	movw	r30, r28
     94e:	e2 56       	subi	r30, 0x62	; 98
     950:	ff 4f       	sbci	r31, 0xFF	; 255
     952:	cf 01       	movw	r24, r30
     954:	0f 96       	adiw	r24, 0x0f	; 15
	char n;
	
	char mapa[3][5];
	for(int i=0; i<3; i++){
		for(int j=0; j<5; j++){
			mapa[i][j] = 0;
     956:	10 82       	st	Z, r1
     958:	11 82       	std	Z+1, r1	; 0x01
     95a:	12 82       	std	Z+2, r1	; 0x02
     95c:	13 82       	std	Z+3, r1	; 0x03
     95e:	14 82       	std	Z+4, r1	; 0x04
     960:	35 96       	adiw	r30, 0x05	; 5
	char senhaRespostaNova = 0;
	
	char n;
	
	char mapa[3][5];
	for(int i=0; i<3; i++){
     962:	e8 17       	cp	r30, r24
     964:	f9 07       	cpc	r31, r25
     966:	b9 f7       	brne	.-18     	; 0x956 <main+0x4c>
		for(int j=0; j<5; j++){
			mapa[i][j] = 0;
		}
	}
	char contAndar[3]={0,0,0};
     968:	c3 55       	subi	r28, 0x53	; 83
     96a:	df 4f       	sbci	r29, 0xFF	; 255
     96c:	18 82       	st	Y, r1
     96e:	cd 5a       	subi	r28, 0xAD	; 173
     970:	d0 40       	sbci	r29, 0x00	; 0
     972:	c2 55       	subi	r28, 0x52	; 82
     974:	df 4f       	sbci	r29, 0xFF	; 255
     976:	18 82       	st	Y, r1
     978:	ce 5a       	subi	r28, 0xAE	; 174
     97a:	d0 40       	sbci	r29, 0x00	; 0
     97c:	c1 55       	subi	r28, 0x51	; 81
     97e:	df 4f       	sbci	r29, 0xFF	; 255
     980:	18 82       	st	Y, r1
     982:	cf 5a       	subi	r28, 0xAF	; 175
     984:	d0 40       	sbci	r29, 0x00	; 0
	char cont0antes = 0;
	
	char recontar = 0;
	
	DataHora ultMostraVagas;
     986:	00 e0       	ldi	r16, 0x00	; 0
     988:	20 e0       	ldi	r18, 0x00	; 0
     98a:	41 e0       	ldi	r20, 0x01	; 1
     98c:	61 e0       	ldi	r22, 0x01	; 1
     98e:	ce 01       	movw	r24, r28
     990:	80 55       	subi	r24, 0x50	; 80
     992:	9f 4f       	sbci	r25, 0xFF	; 255
     994:	12 dc       	rcall	.-2012   	; 0x1ba <_ZN8DataHoraC1Ecccc>
	DataHora ultEO;
     996:	20 e0       	ldi	r18, 0x00	; 0
     998:	41 e0       	ldi	r20, 0x01	; 1
     99a:	61 e0       	ldi	r22, 0x01	; 1
     99c:	ce 01       	movw	r24, r28
     99e:	8b 54       	subi	r24, 0x4B	; 75
     9a0:	9f 4f       	sbci	r25, 0xFF	; 255
     9a2:	0b dc       	rcall	.-2026   	; 0x1ba <_ZN8DataHoraC1Ecccc>
	
	char tLetreiro; //tempo letreiro preços
	char indice=0; //indice letreiro preços
	char letreiro[44] = "R$10 primeira hora, R$4 meia hora adicional";
	
	DataHora tempoTMP;
     9a4:	20 e0       	ldi	r18, 0x00	; 0
     9a6:	41 e0       	ldi	r20, 0x01	; 1
     9a8:	61 e0       	ldi	r22, 0x01	; 1
     9aa:	ce 01       	movw	r24, r28
     9ac:	86 54       	subi	r24, 0x46	; 70
	
	int valorAguardaResposta=0;
	
	DDRB = 1<<7;
     9ae:	9f 4f       	sbci	r25, 0xFF	; 255
     9b0:	04 dc       	rcall	.-2040   	; 0x1ba <_ZN8DataHoraC1Ecccc>
	
	serialSetup();
     9b2:	80 e8       	ldi	r24, 0x80	; 128
     9b4:	84 b9       	out	0x04, r24	; 4
	lcd_config();
     9b6:	e0 d5       	rcall	.+3008   	; 0x1578 <_Z11serialSetupv>
     9b8:	3a de       	rcall	.-908    	; 0x62e <_Z10lcd_configv>
	timer1_config();
     9ba:	c9 de       	rcall	.-622    	; 0x74e <_Z13timer1_configv>
     9bc:	e1 2c       	mov	r14, r1
		}
	}
	char contAndar[3]={0,0,0};
	char cont0antes = 0;
	
	char recontar = 0;
     9be:	21 2c       	mov	r2, r1

	char cartaoResposta[32];
	char cartaoRepostaNova = 0;

	char senhaResposta[32];
	char senhaRespostaNova = 0;
     9c0:	61 2c       	mov	r6, r1


	char bloqueadoPorHorario=0;

	char cartaoResposta[32];
	char cartaoRepostaNova = 0;
     9c2:	f1 2c       	mov	r15, r1
	
	
	


	char bloqueadoPorHorario=0;
     9c4:	31 2c       	mov	r3, r1
	char novoBotao = 0;
	
	char numeroCartao[7];
	char numeroCartaoPos=0;	
	char numeroSenha[7];
	char numeroSenhaPos=0;
     9c6:	71 2c       	mov	r7, r1
	DataHora horaLetreiro;
	
	char novoBotao = 0;
	
	char numeroCartao[7];
	char numeroCartaoPos=0;	
     9c8:	cc 24       	eor	r12, r12
	char vetor[64];	
	char tmp;
	
	int carroEntrada=-1;
	DataHora horaCarroEntrada;
	int carroSaida=-1;
     9ca:	ca 94       	dec	r12
     9cc:	dc 2c       	mov	r13, r12
     9ce:	aa 24       	eor	r10, r10
    /* Replace with your application code */
	char byteLido;
	char vetor[64];	
	char tmp;
	
	int carroEntrada=-1;
     9d0:	aa 94       	dec	r10
     9d2:	ba 2c       	mov	r11, r10
     9d4:	8e e9       	ldi	r24, 0x9E	; 158
								leVetor(mapa[0],5);
								countMapa(mapa, contAndar, '0');
								recontar &= ~(1);
								break;
							case '1':
								leVetor(mapa[1],5);
     9d6:	90 e0       	ldi	r25, 0x00	; 0
     9d8:	8c 0f       	add	r24, r28
     9da:	9d 1f       	adc	r25, r29
     9dc:	05 96       	adiw	r24, 0x05	; 5
     9de:	cc 53       	subi	r28, 0x3C	; 60
     9e0:	df 4f       	sbci	r29, 0xFF	; 255
     9e2:	99 83       	std	Y+1, r25	; 0x01
     9e4:	88 83       	st	Y, r24
     9e6:	c4 5c       	subi	r28, 0xC4	; 196

    while (1) 
    {		
	
		//PORTB ^= 1<<7;
		if(novoDado()){ //loop padrão
     9e8:	d0 40       	sbci	r29, 0x00	; 0
     9ea:	d5 d5       	rcall	.+2986   	; 0x1596 <_Z8novoDadov>
     9ec:	88 23       	and	r24, r24
     9ee:	09 f4       	brne	.+2      	; 0x9f2 <main+0xe8>
     9f0:	e3 c1       	rjmp	.+966    	; 0xdb8 <main+0x4ae>
			byteLido = le();
     9f2:	d7 d5       	rcall	.+2990   	; 0x15a2 <_Z2lev>
     9f4:	83 35       	cpi	r24, 0x53	; 83
			if(byteLido == 'S'){
     9f6:	09 f0       	breq	.+2      	; 0x9fa <main+0xf0>
     9f8:	df c1       	rjmp	.+958    	; 0xdb8 <main+0x4ae>
     9fa:	d3 d5       	rcall	.+2982   	; 0x15a2 <_Z2lev>
				//lcdWritePos("RECEBEU", 0,1);
				byteLido = le();
     9fc:	90 e0       	ldi	r25, 0x00	; 0
     9fe:	fc 01       	movw	r30, r24
				switch (byteLido)
     a00:	e2 54       	subi	r30, 0x42	; 66
     a02:	f1 09       	sbc	r31, r1
     a04:	e2 31       	cpi	r30, 0x12	; 18
     a06:	f1 05       	cpc	r31, r1
     a08:	08 f0       	brcs	.+2      	; 0xa0c <main+0x102>
     a0a:	d6 c1       	rjmp	.+940    	; 0xdb8 <main+0x4ae>
     a0c:	88 27       	eor	r24, r24
     a0e:	ee 58       	subi	r30, 0x8E	; 142
     a10:	ff 4f       	sbci	r31, 0xFF	; 255
     a12:	8f 4f       	sbci	r24, 0xFF	; 255
     a14:	7a c7       	rjmp	.+3828   	; 0x190a <__tablejump2__>
				{
					case 'B': //Bloqueia
						escreveVetor("EB",2);
     a16:	62 e0       	ldi	r22, 0x02	; 2
     a18:	70 e0       	ldi	r23, 0x00	; 0
     a1a:	8a e2       	ldi	r24, 0x2A	; 42
     a1c:	92 e0       	ldi	r25, 0x02	; 2
     a1e:	20 d6       	rcall	.+3136   	; 0x1660 <_Z12escreveVetorPci>
						bloqueia();						
     a20:	ce de       	rcall	.-612    	; 0x7be <_Z8bloqueiav>
						break; //B
     a22:	ca c1       	rjmp	.+916    	; 0xdb8 <main+0x4ae>
					case 'D': //Desbloqueia
						escreveVetor("ED", 2);
     a24:	62 e0       	ldi	r22, 0x02	; 2
     a26:	70 e0       	ldi	r23, 0x00	; 0
     a28:	8d e2       	ldi	r24, 0x2D	; 45
     a2a:	92 e0       	ldi	r25, 0x02	; 2
     a2c:	19 d6       	rcall	.+3122   	; 0x1660 <_Z12escreveVetorPci>
						desbloqueia();
     a2e:	a3 de       	rcall	.-698    	; 0x776 <_Z11desbloqueiav>
     a30:	c3 c1       	rjmp	.+902    	; 0xdb8 <main+0x4ae>
						break; //D
					case 'H': //Recebe DataHora
						leVetor(vetor, 4);
     a32:	64 e0       	ldi	r22, 0x04	; 4
     a34:	70 e0       	ldi	r23, 0x00	; 0
     a36:	ce 01       	movw	r24, r28
     a38:	01 96       	adiw	r24, 0x01	; 1
     a3a:	e1 d5       	rcall	.+3010   	; 0x15fe <_Z7leVetorPci>
						relogio.setByVector(vetor);
     a3c:	be 01       	movw	r22, r28
     a3e:	6f 5f       	subi	r22, 0xFF	; 255
     a40:	7f 4f       	sbci	r23, 0xFF	; 255
     a42:	8e e2       	ldi	r24, 0x2E	; 46
     a44:	93 e0       	ldi	r25, 0x03	; 3
     a46:	c2 db       	rcall	.-2172   	; 0x1cc <_ZN8DataHora11setByVectorEPc>
						escreveVetor("EH",2);
     a48:	62 e0       	ldi	r22, 0x02	; 2
     a4a:	70 e0       	ldi	r23, 0x00	; 0
     a4c:	80 e3       	ldi	r24, 0x30	; 48
     a4e:	92 e0       	ldi	r25, 0x02	; 2
     a50:	07 d6       	rcall	.+3086   	; 0x1660 <_Z12escreveVetorPci>
						break; //H
     a52:	b2 c1       	rjmp	.+868    	; 0xdb8 <main+0x4ae>
					case 'N': //Novo Carro
						byteLido=le(); //1 entrada, 2 saída
     a54:	a6 d5       	rcall	.+2892   	; 0x15a2 <_Z2lev>
     a56:	18 2f       	mov	r17, r24
						leVetor(vetor, 8); //Lê placa 7char+\0
     a58:	68 e0       	ldi	r22, 0x08	; 8
     a5a:	70 e0       	ldi	r23, 0x00	; 0
     a5c:	ce 01       	movw	r24, r28
     a5e:	01 96       	adiw	r24, 0x01	; 1
     a60:	ce d5       	rcall	.+2972   	; 0x15fe <_Z7leVetorPci>
						escreveVetor("EN", 2); //Resposta para Servidor
     a62:	62 e0       	ldi	r22, 0x02	; 2
     a64:	70 e0       	ldi	r23, 0x00	; 0
     a66:	83 e3       	ldi	r24, 0x33	; 51
     a68:	92 e0       	ldi	r25, 0x02	; 2
     a6a:	fa d5       	rcall	.+3060   	; 0x1660 <_Z12escreveVetorPci>
						lcdWritePos(vetor, 0,0);
     a6c:	40 e0       	ldi	r20, 0x00	; 0
     a6e:	60 e0       	ldi	r22, 0x00	; 0
     a70:	ce 01       	movw	r24, r28
     a72:	01 96       	adiw	r24, 0x01	; 1
     a74:	24 de       	rcall	.-952    	; 0x6be <_Z11lcdWritePosPccc>
     a76:	ce 01       	movw	r24, r28
						posCarro = procuraPlaca(vetor);
     a78:	01 96       	adiw	r24, 0x01	; 1
     a7a:	ae de       	rcall	.-676    	; 0x7d8 <_Z12procuraPlacaPc>
     a7c:	2c 01       	movw	r4, r24
     a7e:	8d ec       	ldi	r24, 0xCD	; 205
						lcdWrite(" ");
     a80:	92 e0       	ldi	r25, 0x02	; 2
     a82:	fd dd       	rcall	.-1030   	; 0x67e <_Z8lcdWritePc>
     a84:	9f ef       	ldi	r25, 0xFF	; 255
						char pos[4];
						//lcdWritechar(posCarro/100 +0x30);
						//lcdWritechar(posCarro%100/10 +0x30);
						//lcdWritechar(posCarro%100 +0x30);
						
						if(posCarro == -1){
     a86:	49 16       	cp	r4, r25
     a88:	59 06       	cpc	r5, r25
     a8a:	81 f4       	brne	.+32     	; 0xaac <main+0x1a2>
							posCarro = procuraPlaca("#######");
     a8c:	86 e3       	ldi	r24, 0x36	; 54
     a8e:	92 e0       	ldi	r25, 0x02	; 2
     a90:	a3 de       	rcall	.-698    	; 0x7d8 <_Z12procuraPlacaPc>
     a92:	2c 01       	movw	r4, r24
							carros[posCarro].setPlaca(vetor);
     a94:	27 e1       	ldi	r18, 0x17	; 23
     a96:	24 9d       	mul	r18, r4
     a98:	c0 01       	movw	r24, r0
     a9a:	25 9d       	mul	r18, r5
     a9c:	90 0d       	add	r25, r0
     a9e:	11 24       	eor	r1, r1
     aa0:	be 01       	movw	r22, r28
     aa2:	6f 5f       	subi	r22, 0xFF	; 255
     aa4:	7f 4f       	sbci	r23, 0xFF	; 255
     aa6:	8d 5c       	subi	r24, 0xCD	; 205
     aa8:	9c 4f       	sbci	r25, 0xFC	; 252
						}
						lcdWrite(" ");
     aaa:	9d dd       	rcall	.-1222   	; 0x5e6 <_ZN7Veiculo8setPlacaEPc>
     aac:	8d ec       	ldi	r24, 0xCD	; 205
     aae:	92 e0       	ldi	r25, 0x02	; 2
     ab0:	e6 dd       	rcall	.-1076   	; 0x67e <_Z8lcdWritePc>
     ab2:	4a e0       	ldi	r20, 0x0A	; 10
     ab4:	be 01       	movw	r22, r28
     ab6:	61 54       	subi	r22, 0x41	; 65
     ab8:	7f 4f       	sbci	r23, 0xFF	; 255
     aba:	c2 01       	movw	r24, r4
     abc:	4b d7       	rcall	.+3734   	; 0x1954 <__itoa_ncheck>
     abe:	ce 01       	movw	r24, r28
						itoa(posCarro, pos, 10);
						lcdWrite(pos);
     ac0:	81 54       	subi	r24, 0x41	; 65
     ac2:	9f 4f       	sbci	r25, 0xFF	; 255
     ac4:	dc dd       	rcall	.-1096   	; 0x67e <_Z8lcdWritePc>
     ac6:	8d ec       	ldi	r24, 0xCD	; 205
     ac8:	92 e0       	ldi	r25, 0x02	; 2
						
						lcdWrite(" ");
     aca:	d9 dd       	rcall	.-1102   	; 0x67e <_Z8lcdWritePc>
     acc:	88 ee       	ldi	r24, 0xE8	; 232
     ace:	93 e0       	ldi	r25, 0x03	; 3
						//itoa(carros[posCarro].valorpago, pos, 10);
						atrasoms(1000);
     ad0:	56 db       	rcall	.-2388   	; 0x17e <_Z8atrasomsj>
     ad2:	11 33       	cpi	r17, 0x31	; 49
     ad4:	19 f0       	breq	.+6      	; 0xadc <main+0x1d2>
     ad6:	12 33       	cpi	r17, 0x32	; 50
						
						switch(byteLido){
     ad8:	31 f1       	breq	.+76     	; 0xb26 <main+0x21c>
     ada:	6e c1       	rjmp	.+732    	; 0xdb8 <main+0x4ae>
     adc:	87 e1       	ldi	r24, 0x17	; 23
     ade:	84 9d       	mul	r24, r4
							case '1':
								carros[posCarro].estado = NAENTRADA;
     ae0:	f0 01       	movw	r30, r0
     ae2:	85 9d       	mul	r24, r5
     ae4:	f0 0d       	add	r31, r0
     ae6:	11 24       	eor	r1, r1
     ae8:	ed 5c       	subi	r30, 0xCD	; 205
     aea:	fc 4f       	sbci	r31, 0xFC	; 252
     aec:	14 8a       	std	Z+20, r1	; 0x14
     aee:	20 91 2e 03 	lds	r18, 0x032E	; 0x80032e <__data_end>
								carroEntrada = posCarro;
								horaCarroEntrada.setByDataHora(relogio);
     af2:	30 91 2f 03 	lds	r19, 0x032F	; 0x80032f <__data_end+0x1>
     af6:	40 91 30 03 	lds	r20, 0x0330	; 0x800330 <__data_end+0x2>
     afa:	50 91 31 03 	lds	r21, 0x0331	; 0x800331 <__data_end+0x3>
     afe:	60 91 32 03 	lds	r22, 0x0332	; 0x800332 <__data_end+0x4>
     b02:	ce 01       	movw	r24, r28
     b04:	8f 5b       	subi	r24, 0xBF	; 191
     b06:	9f 4f       	sbci	r25, 0xFF	; 255
     b08:	71 db       	rcall	.-2334   	; 0x1ec <_ZN8DataHora13setByDataHoraES_>
     b0a:	80 91 fb 0d 	lds	r24, 0x0DFB	; 0x800dfb <desbloqueado>
								
								if(desbloqueado){
     b0e:	88 23       	and	r24, r24
     b10:	21 f0       	breq	.+8      	; 0xb1a <main+0x210>
     b12:	81 e3       	ldi	r24, 0x31	; 49
     b14:	38 de       	rcall	.-912    	; 0x786 <_Z11cancelaAbrec>
									cancelaAbre(byteLido);
     b16:	52 01       	movw	r10, r4
     b18:	4f c1       	rjmp	.+670    	; 0xdb8 <main+0x4ae>
						atrasoms(1000);
						
						switch(byteLido){
							case '1':
								carros[posCarro].estado = NAENTRADA;
								carroEntrada = posCarro;
     b1a:	83 dd       	rcall	.-1274   	; 0x622 <_Z13clear_displayv>
     b1c:	8e e3       	ldi	r24, 0x3E	; 62
								horaCarroEntrada.setByDataHora(relogio);
								
								if(desbloqueado){
									cancelaAbre(byteLido);
								}else{
									clear_display();
     b1e:	92 e0       	ldi	r25, 0x02	; 2
     b20:	ae dd       	rcall	.-1188   	; 0x67e <_Z8lcdWritePc>
									lcdWrite("Desligado!");
     b22:	52 01       	movw	r10, r4
     b24:	49 c1       	rjmp	.+658    	; 0xdb8 <main+0x4ae>
     b26:	87 e1       	ldi	r24, 0x17	; 23
     b28:	84 9d       	mul	r24, r4
						atrasoms(1000);
						
						switch(byteLido){
							case '1':
								carros[posCarro].estado = NAENTRADA;
								carroEntrada = posCarro;
     b2a:	f0 01       	movw	r30, r0
     b2c:	85 9d       	mul	r24, r5
									lcdWrite("Desligado!");
								}
								
								break;
							case '2':
								carros[posCarro].estado = NASAIDA;
     b2e:	f0 0d       	add	r31, r0
     b30:	11 24       	eor	r1, r1
     b32:	ed 5c       	subi	r30, 0xCD	; 205
     b34:	fc 4f       	sbci	r31, 0xFC	; 252
     b36:	82 e0       	ldi	r24, 0x02	; 2
     b38:	84 8b       	std	Z+20, r24	; 0x14
     b3a:	20 91 2e 03 	lds	r18, 0x032E	; 0x80032e <__data_end>
     b3e:	30 91 2f 03 	lds	r19, 0x032F	; 0x80032f <__data_end+0x1>
								carroSaida= posCarro;
								horaCarroSaida.setByDataHora(relogio);
     b42:	40 91 30 03 	lds	r20, 0x0330	; 0x800330 <__data_end+0x2>
     b46:	50 91 31 03 	lds	r21, 0x0331	; 0x800331 <__data_end+0x3>
     b4a:	60 91 32 03 	lds	r22, 0x0332	; 0x800332 <__data_end+0x4>
     b4e:	ce 01       	movw	r24, r28
     b50:	8a 5b       	subi	r24, 0xBA	; 186
     b52:	9f 4f       	sbci	r25, 0xFF	; 255
     b54:	4b db       	rcall	.-2410   	; 0x1ec <_ZN8DataHora13setByDataHoraES_>
     b56:	80 91 fb 0d 	lds	r24, 0x0DFB	; 0x800dfb <desbloqueado>

								
								if(desbloqueado){
     b5a:	88 23       	and	r24, r24
     b5c:	29 f1       	breq	.+74     	; 0xba8 <main+0x29e>
     b5e:	27 e1       	ldi	r18, 0x17	; 23
									if(carros[posCarro].calculaPgto(relogio) > 0){
     b60:	24 9d       	mul	r18, r4
     b62:	c0 01       	movw	r24, r0
     b64:	25 9d       	mul	r18, r5
     b66:	90 0d       	add	r25, r0
     b68:	11 24       	eor	r1, r1
     b6a:	20 91 2e 03 	lds	r18, 0x032E	; 0x80032e <__data_end>
     b6e:	30 91 2f 03 	lds	r19, 0x032F	; 0x80032f <__data_end+0x1>
     b72:	40 91 30 03 	lds	r20, 0x0330	; 0x800330 <__data_end+0x2>
     b76:	50 91 31 03 	lds	r21, 0x0331	; 0x800331 <__data_end+0x3>
     b7a:	60 91 32 03 	lds	r22, 0x0332	; 0x800332 <__data_end+0x4>
     b7e:	8d 5c       	subi	r24, 0xCD	; 205
     b80:	9c 4f       	sbci	r25, 0xFC	; 252
     b82:	70 dc       	rcall	.-1824   	; 0x464 <_ZN7Veiculo11calculaPgtoE8DataHora>
										clear_display();
     b84:	18 16       	cp	r1, r24
										lcdWrite("Realize o Pagamento");
     b86:	19 06       	cpc	r1, r25
     b88:	5c f4       	brge	.+22     	; 0xba0 <main+0x296>
     b8a:	4b dd       	rcall	.-1386   	; 0x622 <_Z13clear_displayv>
										estado = NUMEROCARTAO;
     b8c:	89 e4       	ldi	r24, 0x49	; 73
     b8e:	92 e0       	ldi	r25, 0x02	; 2
     b90:	76 dd       	rcall	.-1300   	; 0x67e <_Z8lcdWritePc>
										telaNova = 1;
     b92:	81 e0       	ldi	r24, 0x01	; 1
     b94:	80 93 01 02 	sts	0x0201, r24	; 0x800201 <estado>
								}
								
								break;
							case '2':
								carros[posCarro].estado = NASAIDA;
								carroSaida= posCarro;
     b98:	80 93 00 02 	sts	0x0200, r24	; 0x800200 <__DATA_REGION_ORIGIN__>
										clear_display();
										lcdWrite("Realize o Pagamento");
										estado = NUMEROCARTAO;
										telaNova = 1;
									}else{
										cancelaAbre(byteLido);
     b9c:	62 01       	movw	r12, r4
     b9e:	0c c1       	rjmp	.+536    	; 0xdb8 <main+0x4ae>
								}
								
								break;
							case '2':
								carros[posCarro].estado = NASAIDA;
								carroSaida= posCarro;
     ba0:	82 e3       	ldi	r24, 0x32	; 50
										telaNova = 1;
									}else{
										cancelaAbre(byteLido);
									}
								}else{
									clear_display();
     ba2:	f1 dd       	rcall	.-1054   	; 0x786 <_Z11cancelaAbrec>
									lcdWrite("Desligado!");
     ba4:	62 01       	movw	r12, r4
     ba6:	08 c1       	rjmp	.+528    	; 0xdb8 <main+0x4ae>
     ba8:	3c dd       	rcall	.-1416   	; 0x622 <_Z13clear_displayv>
     baa:	8e e3       	ldi	r24, 0x3E	; 62
								}
								
								break;
							case '2':
								carros[posCarro].estado = NASAIDA;
								carroSaida= posCarro;
     bac:	92 e0       	ldi	r25, 0x02	; 2
     bae:	67 dd       	rcall	.-1330   	; 0x67e <_Z8lcdWritePc>
								}
								break;
						}
						break; //N
					case 'S': //Carro saindo
						byteLido = le(); //1 entrada, 2 saída
     bb0:	62 01       	movw	r12, r4
     bb2:	02 c1       	rjmp	.+516    	; 0xdb8 <main+0x4ae>
						leVetor(vetor,8);
     bb4:	f6 d4       	rcall	.+2540   	; 0x15a2 <_Z2lev>
     bb6:	18 2f       	mov	r17, r24
     bb8:	68 e0       	ldi	r22, 0x08	; 8
     bba:	70 e0       	ldi	r23, 0x00	; 0
     bbc:	ce 01       	movw	r24, r28
     bbe:	01 96       	adiw	r24, 0x01	; 1
						escreveVetor("ES", 2);
     bc0:	1e d5       	rcall	.+2620   	; 0x15fe <_Z7leVetorPci>
     bc2:	62 e0       	ldi	r22, 0x02	; 2
     bc4:	70 e0       	ldi	r23, 0x00	; 0
     bc6:	8d e5       	ldi	r24, 0x5D	; 93
     bc8:	92 e0       	ldi	r25, 0x02	; 2
     bca:	4a d5       	rcall	.+2708   	; 0x1660 <_Z12escreveVetorPci>
						posCarro = procuraPlaca(vetor);
     bcc:	ce 01       	movw	r24, r28
     bce:	01 96       	adiw	r24, 0x01	; 1
     bd0:	03 de       	rcall	.-1018   	; 0x7d8 <_Z12procuraPlacaPc>
     bd2:	2c 01       	movw	r4, r24
						atrasoms(2000);
     bd4:	80 ed       	ldi	r24, 0xD0	; 208
     bd6:	97 e0       	ldi	r25, 0x07	; 7
     bd8:	d2 da       	rcall	.-2652   	; 0x17e <_Z8atrasomsj>
     bda:	81 2f       	mov	r24, r17
						cancelaFecha(byteLido);
     bdc:	e2 dd       	rcall	.-1084   	; 0x7a2 <_Z12cancelaFechac>
     bde:	11 33       	cpi	r17, 0x31	; 49
     be0:	21 f0       	breq	.+8      	; 0xbea <main+0x2e0>
						recontar = 7;
						switch(byteLido){
     be2:	12 33       	cpi	r17, 0x32	; 50
     be4:	09 f4       	brne	.+2      	; 0xbe8 <main+0x2de>
     be6:	63 c0       	rjmp	.+198    	; 0xcae <main+0x3a4>
     be8:	e3 c0       	rjmp	.+454    	; 0xdb0 <main+0x4a6>
     bea:	c3 55       	subi	r28, 0x53	; 83
     bec:	df 4f       	sbci	r29, 0xFF	; 255
							case '1':
								cont0antes = contAndar[0];
     bee:	08 81       	ld	r16, Y
     bf0:	cd 5a       	subi	r28, 0xAD	; 173
     bf2:	d0 40       	sbci	r29, 0x00	; 0
     bf4:	80 e3       	ldi	r24, 0x30	; 48
     bf6:	12 de       	rcall	.-988    	; 0x81c <_Z8pedeMapac>
								pedeMapa('0');
     bf8:	84 e6       	ldi	r24, 0x64	; 100
     bfa:	90 e0       	ldi	r25, 0x00	; 0
     bfc:	c0 da       	rcall	.-2688   	; 0x17e <_Z8atrasomsj>
								atrasoms(100);
     bfe:	40 e3       	ldi	r20, 0x30	; 48
     c00:	be 01       	movw	r22, r28
     c02:	63 55       	subi	r22, 0x53	; 83
     c04:	7f 4f       	sbci	r23, 0xFF	; 255
								countMapa(mapa, contAndar,'0');
     c06:	ce 01       	movw	r24, r28
     c08:	82 56       	subi	r24, 0x62	; 98
     c0a:	9f 4f       	sbci	r25, 0xFF	; 255
     c0c:	12 de       	rcall	.-988    	; 0x832 <_Z9countMapaPA5_cPcc>
     c0e:	11 e0       	ldi	r17, 0x01	; 1
     c10:	c3 55       	subi	r28, 0x53	; 83
     c12:	df 4f       	sbci	r29, 0xFF	; 255
     c14:	88 81       	ld	r24, Y
     c16:	cd 5a       	subi	r28, 0xAD	; 173
								if((contAndar[0] != cont0antes) & !carros[posCarro].ehEspecial()){
     c18:	d0 40       	sbci	r29, 0x00	; 0
     c1a:	80 13       	cpse	r24, r16
     c1c:	01 c0       	rjmp	.+2      	; 0xc20 <main+0x316>
     c1e:	10 e0       	ldi	r17, 0x00	; 0
     c20:	27 e1       	ldi	r18, 0x17	; 23
     c22:	24 9d       	mul	r18, r4
     c24:	c0 01       	movw	r24, r0
     c26:	25 9d       	mul	r18, r5
     c28:	90 0d       	add	r25, r0
     c2a:	11 24       	eor	r1, r1
     c2c:	8d 5c       	subi	r24, 0xCD	; 205
     c2e:	9c 4f       	sbci	r25, 0xFC	; 252
     c30:	b0 dc       	rcall	.-1696   	; 0x592 <_ZN7Veiculo10ehEspecialEv>
     c32:	91 e0       	ldi	r25, 0x01	; 1
     c34:	81 11       	cpse	r24, r1
     c36:	90 e0       	ldi	r25, 0x00	; 0
     c38:	99 23       	and	r25, r25
     c3a:	69 f0       	breq	.+26     	; 0xc56 <main+0x34c>
     c3c:	11 23       	and	r17, r17
     c3e:	59 f0       	breq	.+22     	; 0xc56 <main+0x34c>
     c40:	87 e1       	ldi	r24, 0x17	; 23
     c42:	84 9d       	mul	r24, r4
     c44:	f0 01       	movw	r30, r0
     c46:	85 9d       	mul	r24, r5
     c48:	f0 0d       	add	r31, r0
									carros[posCarro].estEspecial=1;
     c4a:	11 24       	eor	r1, r1
     c4c:	ed 5c       	subi	r30, 0xCD	; 205
     c4e:	fc 4f       	sbci	r31, 0xFC	; 252
     c50:	81 e0       	ldi	r24, 0x01	; 1
     c52:	85 8b       	std	Z+21, r24	; 0x15
     c54:	09 c0       	rjmp	.+18     	; 0xc68 <main+0x35e>
     c56:	87 e1       	ldi	r24, 0x17	; 23
     c58:	84 9d       	mul	r24, r4
     c5a:	f0 01       	movw	r30, r0
     c5c:	85 9d       	mul	r24, r5
     c5e:	f0 0d       	add	r31, r0
								}else{
									carros[posCarro].estEspecial=0;
     c60:	11 24       	eor	r1, r1
     c62:	ed 5c       	subi	r30, 0xCD	; 205
     c64:	fc 4f       	sbci	r31, 0xFC	; 252
     c66:	15 8a       	std	Z+21, r1	; 0x15
     c68:	27 e1       	ldi	r18, 0x17	; 23
     c6a:	24 9d       	mul	r18, r4
     c6c:	c0 01       	movw	r24, r0
     c6e:	25 9d       	mul	r18, r5
     c70:	90 0d       	add	r25, r0
								}
								carroEntrada = -1;
								carros[posCarro].estado = DENTRO;
     c72:	11 24       	eor	r1, r1
     c74:	fc 01       	movw	r30, r24
     c76:	ed 5c       	subi	r30, 0xCD	; 205
     c78:	fc 4f       	sbci	r31, 0xFC	; 252
     c7a:	21 e0       	ldi	r18, 0x01	; 1
     c7c:	24 8b       	std	Z+20, r18	; 0x14
     c7e:	20 91 2e 03 	lds	r18, 0x032E	; 0x80032e <__data_end>
     c82:	30 91 2f 03 	lds	r19, 0x032F	; 0x80032f <__data_end+0x1>
     c86:	40 91 30 03 	lds	r20, 0x0330	; 0x800330 <__data_end+0x2>
								carros[posCarro].dataEntrada.setByDataHora(relogio);
     c8a:	50 91 31 03 	lds	r21, 0x0331	; 0x800331 <__data_end+0x3>
     c8e:	60 91 32 03 	lds	r22, 0x0332	; 0x800332 <__data_end+0x4>
     c92:	85 5c       	subi	r24, 0xC5	; 197
     c94:	9c 4f       	sbci	r25, 0xFC	; 252
     c96:	aa da       	rcall	.-2732   	; 0x1ec <_ZN8DataHora13setByDataHoraES_>
     c98:	86 e0       	ldi	r24, 0x06	; 6
     c9a:	80 93 01 02 	sts	0x0201, r24	; 0x800201 <estado>
     c9e:	0f 2e       	mov	r0, r31
     ca0:	f7 e0       	ldi	r31, 0x07	; 7
								estado = SAIUENTRADA;
     ca2:	ef 2e       	mov	r14, r31
     ca4:	f0 2d       	mov	r31, r0
     ca6:	aa 24       	eor	r10, r10
						leVetor(vetor,8);
						escreveVetor("ES", 2);
						posCarro = procuraPlaca(vetor);
						atrasoms(2000);
						cancelaFecha(byteLido);
						recontar = 7;
     ca8:	aa 94       	dec	r10
     caa:	ba 2c       	mov	r11, r10
     cac:	85 c0       	rjmp	.+266    	; 0xdb8 <main+0x4ae>
								if((contAndar[0] != cont0antes) & !carros[posCarro].ehEspecial()){
									carros[posCarro].estEspecial=1;
								}else{
									carros[posCarro].estEspecial=0;
								}
								carroEntrada = -1;
     cae:	87 e1       	ldi	r24, 0x17	; 23
     cb0:	84 9d       	mul	r24, r4
								carros[posCarro].estado = DENTRO;
								carros[posCarro].dataEntrada.setByDataHora(relogio);
								estado = SAIUENTRADA;
								break;
     cb2:	f0 01       	movw	r30, r0
							case '2':
								if(carros[posCarro].estEspecial)
     cb4:	85 9d       	mul	r24, r5
     cb6:	f0 0d       	add	r31, r0
     cb8:	11 24       	eor	r1, r1
     cba:	ed 5c       	subi	r30, 0xCD	; 205
     cbc:	fc 4f       	sbci	r31, 0xFC	; 252
     cbe:	85 89       	ldd	r24, Z+21	; 0x15
     cc0:	88 23       	and	r24, r24
     cc2:	51 f0       	breq	.+20     	; 0xcd8 <main+0x3ce>
     cc4:	87 e1       	ldi	r24, 0x17	; 23
									carros[posCarro].estEspecialAntes=1;
     cc6:	84 9d       	mul	r24, r4
     cc8:	f0 01       	movw	r30, r0
     cca:	85 9d       	mul	r24, r5
     ccc:	f0 0d       	add	r31, r0
     cce:	11 24       	eor	r1, r1
     cd0:	ed 5c       	subi	r30, 0xCD	; 205
     cd2:	fc 4f       	sbci	r31, 0xFC	; 252
     cd4:	81 e0       	ldi	r24, 0x01	; 1
     cd6:	86 8b       	std	Z+22, r24	; 0x16
     cd8:	87 e1       	ldi	r24, 0x17	; 23
								carroSaida = -1;
								carros[posCarro].estado = FORA;
     cda:	84 9d       	mul	r24, r4
     cdc:	f0 01       	movw	r30, r0
     cde:	85 9d       	mul	r24, r5
     ce0:	f0 0d       	add	r31, r0
     ce2:	11 24       	eor	r1, r1
     ce4:	ed 5c       	subi	r30, 0xCD	; 205
     ce6:	fc 4f       	sbci	r31, 0xFC	; 252
     ce8:	83 e0       	ldi	r24, 0x03	; 3
								estado = SAIUSAIDA;
     cea:	84 8b       	std	Z+20, r24	; 0x14
     cec:	87 e0       	ldi	r24, 0x07	; 7
     cee:	80 93 01 02 	sts	0x0201, r24	; 0x800201 <estado>
						leVetor(vetor,8);
						escreveVetor("ES", 2);
						posCarro = procuraPlaca(vetor);
						atrasoms(2000);
						cancelaFecha(byteLido);
						recontar = 7;
     cf2:	0f 2e       	mov	r0, r31
     cf4:	f7 e0       	ldi	r31, 0x07	; 7
     cf6:	ef 2e       	mov	r14, r31
								estado = SAIUENTRADA;
								break;
							case '2':
								if(carros[posCarro].estEspecial)
									carros[posCarro].estEspecialAntes=1;
								carroSaida = -1;
     cf8:	f0 2d       	mov	r31, r0
     cfa:	cc 24       	eor	r12, r12
     cfc:	ca 94       	dec	r12
								carros[posCarro].estado = FORA;
								estado = SAIUSAIDA;
								break;
     cfe:	dc 2c       	mov	r13, r12
						}
						break; //S
					case 'C': //Resposta Cartao
						n = le();
     d00:	5b c0       	rjmp	.+182    	; 0xdb8 <main+0x4ae>
						leVetor(cartaoResposta, n);
     d02:	4f d4       	rcall	.+2206   	; 0x15a2 <_Z2lev>
     d04:	68 2f       	mov	r22, r24
     d06:	70 e0       	ldi	r23, 0x00	; 0
     d08:	ce 01       	movw	r24, r28
     d0a:	82 5a       	subi	r24, 0xA2	; 162
     d0c:	9f 4f       	sbci	r25, 0xFF	; 255
						cartaoRepostaNova = 1;
     d0e:	77 d4       	rcall	.+2286   	; 0x15fe <_Z7leVetorPci>
     d10:	66 24       	eor	r6, r6
						break;
     d12:	63 94       	inc	r6
					case 'P':
						n = le();
     d14:	51 c0       	rjmp	.+162    	; 0xdb8 <main+0x4ae>
     d16:	45 d4       	rcall	.+2186   	; 0x15a2 <_Z2lev>
						leVetor(senhaResposta, n);
     d18:	68 2f       	mov	r22, r24
     d1a:	70 e0       	ldi	r23, 0x00	; 0
     d1c:	ce 01       	movw	r24, r28
     d1e:	82 58       	subi	r24, 0x82	; 130
     d20:	9f 4f       	sbci	r25, 0xFF	; 255
     d22:	6d d4       	rcall	.+2266   	; 0x15fe <_Z7leVetorPci>
						senhaRespostaNova = 1;
     d24:	22 24       	eor	r2, r2
     d26:	23 94       	inc	r2
						break;
     d28:	47 c0       	rjmp	.+142    	; 0xdb8 <main+0x4ae>
					case 'M':
						switch(le()){
     d2a:	3b d4       	rcall	.+2166   	; 0x15a2 <_Z2lev>
     d2c:	81 33       	cpi	r24, 0x31	; 49
     d2e:	b9 f0       	breq	.+46     	; 0xd5e <main+0x454>
     d30:	82 33       	cpi	r24, 0x32	; 50
     d32:	51 f1       	breq	.+84     	; 0xd88 <main+0x47e>
     d34:	80 33       	cpi	r24, 0x30	; 48
     d36:	09 f0       	breq	.+2      	; 0xd3a <main+0x430>
     d38:	3f c0       	rjmp	.+126    	; 0xdb8 <main+0x4ae>
							le();
							case '0':
								leVetor(mapa[0],5);
     d3a:	65 e0       	ldi	r22, 0x05	; 5
     d3c:	70 e0       	ldi	r23, 0x00	; 0
     d3e:	ce 01       	movw	r24, r28
     d40:	82 56       	subi	r24, 0x62	; 98
     d42:	9f 4f       	sbci	r25, 0xFF	; 255
     d44:	5c d4       	rcall	.+2232   	; 0x15fe <_Z7leVetorPci>
     d46:	40 e3       	ldi	r20, 0x30	; 48
								countMapa(mapa, contAndar, '0');
     d48:	be 01       	movw	r22, r28
     d4a:	63 55       	subi	r22, 0x53	; 83
     d4c:	7f 4f       	sbci	r23, 0xFF	; 255
     d4e:	ce 01       	movw	r24, r28
     d50:	82 56       	subi	r24, 0x62	; 98
     d52:	9f 4f       	sbci	r25, 0xFF	; 255
     d54:	6e dd       	rcall	.-1316   	; 0x832 <_Z9countMapaPA5_cPcc>
     d56:	ee 2d       	mov	r30, r14
     d58:	ee 7f       	andi	r30, 0xFE	; 254
								recontar &= ~(1);
     d5a:	ee 2e       	mov	r14, r30
     d5c:	2d c0       	rjmp	.+90     	; 0xdb8 <main+0x4ae>
								break;
     d5e:	65 e0       	ldi	r22, 0x05	; 5
							case '1':
								leVetor(mapa[1],5);
     d60:	70 e0       	ldi	r23, 0x00	; 0
     d62:	cc 53       	subi	r28, 0x3C	; 60
     d64:	df 4f       	sbci	r29, 0xFF	; 255
     d66:	88 81       	ld	r24, Y
     d68:	99 81       	ldd	r25, Y+1	; 0x01
     d6a:	c4 5c       	subi	r28, 0xC4	; 196
     d6c:	d0 40       	sbci	r29, 0x00	; 0
     d6e:	47 d4       	rcall	.+2190   	; 0x15fe <_Z7leVetorPci>
     d70:	41 e3       	ldi	r20, 0x31	; 49
     d72:	be 01       	movw	r22, r28
								countMapa(mapa, contAndar, '1');
     d74:	63 55       	subi	r22, 0x53	; 83
     d76:	7f 4f       	sbci	r23, 0xFF	; 255
     d78:	ce 01       	movw	r24, r28
     d7a:	82 56       	subi	r24, 0x62	; 98
     d7c:	9f 4f       	sbci	r25, 0xFF	; 255
     d7e:	59 dd       	rcall	.-1358   	; 0x832 <_Z9countMapaPA5_cPcc>
     d80:	fe 2d       	mov	r31, r14
     d82:	fd 7f       	andi	r31, 0xFD	; 253
								recontar &= ~(1<<1);
     d84:	ef 2e       	mov	r14, r31
     d86:	18 c0       	rjmp	.+48     	; 0xdb8 <main+0x4ae>
     d88:	65 e0       	ldi	r22, 0x05	; 5
								break;	
     d8a:	70 e0       	ldi	r23, 0x00	; 0
							case '2':
								leVetor(mapa[2],5);
     d8c:	8e e9       	ldi	r24, 0x9E	; 158
     d8e:	90 e0       	ldi	r25, 0x00	; 0
     d90:	8c 0f       	add	r24, r28
     d92:	9d 1f       	adc	r25, r29
     d94:	0a 96       	adiw	r24, 0x0a	; 10
     d96:	33 d4       	rcall	.+2150   	; 0x15fe <_Z7leVetorPci>
     d98:	42 e3       	ldi	r20, 0x32	; 50
     d9a:	be 01       	movw	r22, r28
     d9c:	63 55       	subi	r22, 0x53	; 83
								countMapa(mapa, contAndar, '2');
     d9e:	7f 4f       	sbci	r23, 0xFF	; 255
     da0:	ce 01       	movw	r24, r28
     da2:	82 56       	subi	r24, 0x62	; 98
     da4:	9f 4f       	sbci	r25, 0xFF	; 255
     da6:	45 dd       	rcall	.-1398   	; 0x832 <_Z9countMapaPA5_cPcc>
     da8:	8e 2d       	mov	r24, r14
     daa:	8b 7f       	andi	r24, 0xFB	; 251
     dac:	e8 2e       	mov	r14, r24
								recontar &= ~(1<<2);
     dae:	04 c0       	rjmp	.+8      	; 0xdb8 <main+0x4ae>
     db0:	0f 2e       	mov	r0, r31
     db2:	f7 e0       	ldi	r31, 0x07	; 7
								break;
     db4:	ef 2e       	mov	r14, r31
						leVetor(vetor,8);
						escreveVetor("ES", 2);
						posCarro = procuraPlaca(vetor);
						atrasoms(2000);
						cancelaFecha(byteLido);
						recontar = 7;
     db6:	f0 2d       	mov	r31, r0
     db8:	f1 10       	cpse	r15, r1
     dba:	9d c3       	rjmp	.+1850   	; 0x14f6 <__EEPROM_REGION_LENGTH__+0x4f6>
     dbc:	80 91 30 03 	lds	r24, 0x0330	; 0x800330 <__data_end+0x2>
						
				}//switch
			}//if bytelido == 'S'
		}// if novoDado
		
		if(!bloqueadoPorHorario && relogio.hora<6){
     dc0:	86 30       	cpi	r24, 0x06	; 6
     dc2:	d8 f4       	brcc	.+54     	; 0xdfa <main+0x4f0>
     dc4:	80 91 fb 0d 	lds	r24, 0x0DFB	; 0x800dfb <desbloqueado>
     dc8:	81 11       	cpse	r24, r1
			bloqueadoPorHorario = 1;
			if(desbloqueado || estado != BLOQUEADO)
     dca:	04 c0       	rjmp	.+8      	; 0xdd4 <main+0x4ca>
     dcc:	80 91 01 02 	lds	r24, 0x0201	; 0x800201 <estado>
     dd0:	85 30       	cpi	r24, 0x05	; 5
     dd2:	79 f0       	breq	.+30     	; 0xdf2 <main+0x4e8>
     dd4:	f4 dc       	rcall	.-1560   	; 0x7be <_Z8bloqueiav>
     dd6:	ff 24       	eor	r15, r15
				bloqueia();
     dd8:	f3 94       	inc	r15
				}//switch
			}//if bytelido == 'S'
		}// if novoDado
		
		if(!bloqueadoPorHorario && relogio.hora<6){
			bloqueadoPorHorario = 1;
     dda:	8d c3       	rjmp	.+1818   	; 0x14f6 <__EEPROM_REGION_LENGTH__+0x4f6>
     ddc:	80 91 fb 0d 	lds	r24, 0x0DFB	; 0x800dfb <desbloqueado>
			if(desbloqueado || estado != BLOQUEADO)
				bloqueia();
		}
		if(bloqueadoPorHorario && relogio.hora>=6){
			bloqueadoPorHorario = 0;
			if(!desbloqueado || estado == BLOQUEADO)
     de0:	88 23       	and	r24, r24
     de2:	21 f0       	breq	.+8      	; 0xdec <main+0x4e2>
     de4:	80 91 01 02 	lds	r24, 0x0201	; 0x800201 <estado>
     de8:	85 30       	cpi	r24, 0x05	; 5
     dea:	31 f4       	brne	.+12     	; 0xdf8 <main+0x4ee>
     dec:	c4 dc       	rcall	.-1656   	; 0x776 <_Z11desbloqueiav>
     dee:	f1 2c       	mov	r15, r1
				desbloqueia();
     df0:	04 c0       	rjmp	.+8      	; 0xdfa <main+0x4f0>
     df2:	ff 24       	eor	r15, r15
			bloqueadoPorHorario = 1;
			if(desbloqueado || estado != BLOQUEADO)
				bloqueia();
		}
		if(bloqueadoPorHorario && relogio.hora>=6){
			bloqueadoPorHorario = 0;
     df4:	f3 94       	inc	r15
     df6:	01 c0       	rjmp	.+2      	; 0xdfa <main+0x4f0>
				}//switch
			}//if bytelido == 'S'
		}// if novoDado
		
		if(!bloqueadoPorHorario && relogio.hora<6){
			bloqueadoPorHorario = 1;
     df8:	f1 2c       	mov	r15, r1
     dfa:	9f ef       	ldi	r25, 0xFF	; 255
     dfc:	a9 16       	cp	r10, r25
			if(desbloqueado || estado != BLOQUEADO)
				bloqueia();
		}
		if(bloqueadoPorHorario && relogio.hora>=6){
			bloqueadoPorHorario = 0;
     dfe:	b9 06       	cpc	r11, r25
			if(!desbloqueado || estado == BLOQUEADO)
				desbloqueia();
		}
		
		
		if(carroEntrada != -1){
     e00:	89 f1       	breq	.+98     	; 0xe64 <main+0x55a>
     e02:	20 91 2e 03 	lds	r18, 0x032E	; 0x80032e <__data_end>
			if(horaCarroSaida.diffSec(relogio) > 40){
     e06:	30 91 2f 03 	lds	r19, 0x032F	; 0x80032f <__data_end+0x1>
     e0a:	40 91 30 03 	lds	r20, 0x0330	; 0x800330 <__data_end+0x2>
     e0e:	50 91 31 03 	lds	r21, 0x0331	; 0x800331 <__data_end+0x3>
     e12:	60 91 32 03 	lds	r22, 0x0332	; 0x800332 <__data_end+0x4>
     e16:	ce 01       	movw	r24, r28
     e18:	8a 5b       	subi	r24, 0xBA	; 186
     e1a:	9f 4f       	sbci	r25, 0xFF	; 255
     e1c:	30 da       	rcall	.-2976   	; 0x27e <_ZN8DataHora7diffSecES_>
     e1e:	89 97       	sbiw	r24, 0x29	; 41
     e20:	44 f0       	brlt	.+16     	; 0xe32 <main+0x528>
     e22:	80 91 32 03 	lds	r24, 0x0332	; 0x800332 <__data_end+0x4>
     e26:	80 ff       	sbrs	r24, 0
				if(relogio.seg%2){
     e28:	02 c0       	rjmp	.+4      	; 0xe2e <main+0x524>
     e2a:	2f 9a       	sbi	0x05, 7	; 5
     e2c:	03 c0       	rjmp	.+6      	; 0xe34 <main+0x52a>
     e2e:	2f 98       	cbi	0x05, 7	; 5
					PORTB |= 1<<7;
     e30:	01 c0       	rjmp	.+2      	; 0xe34 <main+0x52a>
     e32:	2f 98       	cbi	0x05, 7	; 5
				} else {
					PORTB &= ~(1<<7);
     e34:	20 91 2e 03 	lds	r18, 0x032E	; 0x80032e <__data_end>
				}
			}else{
				PORTB &= ~(1<<7);
			}
			if(horaCarroEntrada.diffSec(relogio) > 60){
     e38:	30 91 2f 03 	lds	r19, 0x032F	; 0x80032f <__data_end+0x1>
     e3c:	40 91 30 03 	lds	r20, 0x0330	; 0x800330 <__data_end+0x2>
     e40:	50 91 31 03 	lds	r21, 0x0331	; 0x800331 <__data_end+0x3>
     e44:	60 91 32 03 	lds	r22, 0x0332	; 0x800332 <__data_end+0x4>
     e48:	ce 01       	movw	r24, r28
     e4a:	8f 5b       	subi	r24, 0xBF	; 191
     e4c:	9f 4f       	sbci	r25, 0xFF	; 255
     e4e:	17 da       	rcall	.-3026   	; 0x27e <_ZN8DataHora7diffSecES_>
     e50:	cd 97       	sbiw	r24, 0x3d	; 61
     e52:	44 f0       	brlt	.+16     	; 0xe64 <main+0x55a>
     e54:	81 e3       	ldi	r24, 0x31	; 49
     e56:	a5 dc       	rcall	.-1718   	; 0x7a2 <_Z12cancelaFechac>
				cancelaFecha('1');
     e58:	83 e0       	ldi	r24, 0x03	; 3
     e5a:	80 93 30 03 	sts	0x0330, r24	; 0x800330 <__data_end+0x2>
				carroEntrada = -1;
				carros[carroEntrada].estado = FORA;
     e5e:	aa 24       	eor	r10, r10
     e60:	aa 94       	dec	r10
			}else{
				PORTB &= ~(1<<7);
			}
			if(horaCarroEntrada.diffSec(relogio) > 60){
				cancelaFecha('1');
				carroEntrada = -1;
     e62:	ba 2c       	mov	r11, r10
     e64:	ef ef       	ldi	r30, 0xFF	; 255
				carros[carroEntrada].estado = FORA;
			}
		}
		if(carroSaida != -1){
     e66:	ce 16       	cp	r12, r30
     e68:	de 06       	cpc	r13, r30
     e6a:	89 f1       	breq	.+98     	; 0xece <main+0x5c4>
			if(horaCarroSaida.diffSec(relogio) > 40){
     e6c:	20 91 2e 03 	lds	r18, 0x032E	; 0x80032e <__data_end>
     e70:	30 91 2f 03 	lds	r19, 0x032F	; 0x80032f <__data_end+0x1>
     e74:	40 91 30 03 	lds	r20, 0x0330	; 0x800330 <__data_end+0x2>
     e78:	50 91 31 03 	lds	r21, 0x0331	; 0x800331 <__data_end+0x3>
     e7c:	60 91 32 03 	lds	r22, 0x0332	; 0x800332 <__data_end+0x4>
     e80:	ce 01       	movw	r24, r28
     e82:	8a 5b       	subi	r24, 0xBA	; 186
     e84:	9f 4f       	sbci	r25, 0xFF	; 255
     e86:	fb d9       	rcall	.-3082   	; 0x27e <_ZN8DataHora7diffSecES_>
     e88:	89 97       	sbiw	r24, 0x29	; 41
     e8a:	44 f0       	brlt	.+16     	; 0xe9c <main+0x592>
				if(relogio.seg%2){
     e8c:	80 91 32 03 	lds	r24, 0x0332	; 0x800332 <__data_end+0x4>
     e90:	80 ff       	sbrs	r24, 0
					PORTB |= 1<<7;
     e92:	02 c0       	rjmp	.+4      	; 0xe98 <main+0x58e>
     e94:	2f 9a       	sbi	0x05, 7	; 5
				} else {
					PORTB &= ~(1<<7);
     e96:	03 c0       	rjmp	.+6      	; 0xe9e <main+0x594>
     e98:	2f 98       	cbi	0x05, 7	; 5
				}
			}else{
				PORTB &= ~(1<<7);
     e9a:	01 c0       	rjmp	.+2      	; 0xe9e <main+0x594>
			}
			if(horaCarroSaida.diffSec(relogio) > 60){
     e9c:	2f 98       	cbi	0x05, 7	; 5
     e9e:	20 91 2e 03 	lds	r18, 0x032E	; 0x80032e <__data_end>
     ea2:	30 91 2f 03 	lds	r19, 0x032F	; 0x80032f <__data_end+0x1>
     ea6:	40 91 30 03 	lds	r20, 0x0330	; 0x800330 <__data_end+0x2>
     eaa:	50 91 31 03 	lds	r21, 0x0331	; 0x800331 <__data_end+0x3>
     eae:	60 91 32 03 	lds	r22, 0x0332	; 0x800332 <__data_end+0x4>
     eb2:	ce 01       	movw	r24, r28
     eb4:	8a 5b       	subi	r24, 0xBA	; 186
     eb6:	9f 4f       	sbci	r25, 0xFF	; 255
     eb8:	e2 d9       	rcall	.-3132   	; 0x27e <_ZN8DataHora7diffSecES_>
				cancelaFecha('2');
     eba:	cd 97       	sbiw	r24, 0x3d	; 61
     ebc:	44 f0       	brlt	.+16     	; 0xece <main+0x5c4>
     ebe:	82 e3       	ldi	r24, 0x32	; 50
				carroSaida = -1;
				carros[carroSaida].estado = DENTRO;
     ec0:	70 dc       	rcall	.-1824   	; 0x7a2 <_Z12cancelaFechac>
     ec2:	81 e0       	ldi	r24, 0x01	; 1
     ec4:	80 93 30 03 	sts	0x0330, r24	; 0x800330 <__data_end+0x2>
			}else{
				PORTB &= ~(1<<7);
			}
			if(horaCarroSaida.diffSec(relogio) > 60){
				cancelaFecha('2');
				carroSaida = -1;
     ec8:	cc 24       	eor	r12, r12
     eca:	ca 94       	dec	r12
				carros[carroSaida].estado = DENTRO;
			}
		}
		
		switch(estado){
     ecc:	dc 2c       	mov	r13, r12
     ece:	80 91 01 02 	lds	r24, 0x0201	; 0x800201 <estado>
     ed2:	90 e0       	ldi	r25, 0x00	; 0
     ed4:	88 30       	cpi	r24, 0x08	; 8
     ed6:	91 05       	cpc	r25, r1
     ed8:	08 f0       	brcs	.+2      	; 0xedc <main+0x5d2>
     eda:	e3 c2       	rjmp	.+1478   	; 0x14a2 <__EEPROM_REGION_LENGTH__+0x4a2>
     edc:	fc 01       	movw	r30, r24
     ede:	88 27       	eor	r24, r24
     ee0:	ec 57       	subi	r30, 0x7C	; 124
     ee2:	ff 4f       	sbci	r31, 0xFF	; 255
			case ESTADOINICIAL:
				if(recontar & (1<<0)) pedeMapa('0');
     ee4:	8f 4f       	sbci	r24, 0xFF	; 255
     ee6:	11 c5       	rjmp	.+2594   	; 0x190a <__tablejump2__>
     ee8:	e0 fe       	sbrs	r14, 0
     eea:	02 c0       	rjmp	.+4      	; 0xef0 <main+0x5e6>
				if(recontar & (1<<1)) pedeMapa('1');
     eec:	80 e3       	ldi	r24, 0x30	; 48
     eee:	96 dc       	rcall	.-1748   	; 0x81c <_Z8pedeMapac>
     ef0:	e1 fe       	sbrs	r14, 1
     ef2:	02 c0       	rjmp	.+4      	; 0xef8 <main+0x5ee>
				if(recontar & (1<<2)) pedeMapa('2');
     ef4:	81 e3       	ldi	r24, 0x31	; 49
     ef6:	92 dc       	rcall	.-1756   	; 0x81c <_Z8pedeMapac>
     ef8:	e2 fe       	sbrs	r14, 2
     efa:	02 c0       	rjmp	.+4      	; 0xf00 <main+0x5f6>
     efc:	82 e3       	ldi	r24, 0x32	; 50
				
				if(ultMostraVagas.diffSec(relogio)>15){
     efe:	8e dc       	rcall	.-1764   	; 0x81c <_Z8pedeMapac>
     f00:	20 91 2e 03 	lds	r18, 0x032E	; 0x80032e <__data_end>
     f04:	30 91 2f 03 	lds	r19, 0x032F	; 0x80032f <__data_end+0x1>
     f08:	40 91 30 03 	lds	r20, 0x0330	; 0x800330 <__data_end+0x2>
     f0c:	50 91 31 03 	lds	r21, 0x0331	; 0x800331 <__data_end+0x3>
     f10:	60 91 32 03 	lds	r22, 0x0332	; 0x800332 <__data_end+0x4>
     f14:	ce 01       	movw	r24, r28
     f16:	80 55       	subi	r24, 0x50	; 80
     f18:	9f 4f       	sbci	r25, 0xFF	; 255
     f1a:	b1 d9       	rcall	.-3230   	; 0x27e <_ZN8DataHora7diffSecES_>
     f1c:	40 97       	sbiw	r24, 0x10	; 16
					ultMostraVagas = relogio;
     f1e:	0c f4       	brge	.+2      	; 0xf22 <main+0x618>
     f20:	75 c0       	rjmp	.+234    	; 0x100c <__EEPROM_REGION_LENGTH__+0xc>
     f22:	85 e0       	ldi	r24, 0x05	; 5
     f24:	ee e2       	ldi	r30, 0x2E	; 46
     f26:	f3 e0       	ldi	r31, 0x03	; 3
     f28:	de 01       	movw	r26, r28
     f2a:	a0 55       	subi	r26, 0x50	; 80
					clear_display();
     f2c:	bf 4f       	sbci	r27, 0xFF	; 255
     f2e:	01 90       	ld	r0, Z+
					lcdWritePos("Vagas Terreo:",0,0);
     f30:	0d 92       	st	X+, r0
     f32:	8a 95       	dec	r24
     f34:	e1 f7       	brne	.-8      	; 0xf2e <main+0x624>
     f36:	75 db       	rcall	.-2326   	; 0x622 <_Z13clear_displayv>
     f38:	40 e0       	ldi	r20, 0x00	; 0
     f3a:	60 e0       	ldi	r22, 0x00	; 0
					tmp = 36-contAndar[0];					
     f3c:	80 e6       	ldi	r24, 0x60	; 96
     f3e:	92 e0       	ldi	r25, 0x02	; 2
     f40:	be db       	rcall	.-2180   	; 0x6be <_Z11lcdWritePosPccc>
     f42:	04 e2       	ldi	r16, 0x24	; 36
     f44:	c3 55       	subi	r28, 0x53	; 83
     f46:	df 4f       	sbci	r29, 0xFF	; 255
     f48:	88 81       	ld	r24, Y
					lcdWritechar(tmp/10+0x30);
     f4a:	cd 5a       	subi	r28, 0xAD	; 173
     f4c:	d0 40       	sbci	r29, 0x00	; 0
     f4e:	80 2e       	mov	r8, r16
     f50:	88 1a       	sub	r8, r24
     f52:	1d ec       	ldi	r17, 0xCD	; 205
     f54:	81 9e       	mul	r8, r17
     f56:	91 2c       	mov	r9, r1
     f58:	11 24       	eor	r1, r1
     f5a:	96 94       	lsr	r9
					lcdWritechar(tmp%10+0x30);
     f5c:	96 94       	lsr	r9
     f5e:	96 94       	lsr	r9
     f60:	80 e3       	ldi	r24, 0x30	; 48
     f62:	89 0d       	add	r24, r9
     f64:	5b db       	rcall	.-2378   	; 0x61c <_Z12lcdWritecharc>
     f66:	99 0c       	add	r9, r9
     f68:	89 2d       	mov	r24, r9
     f6a:	88 0f       	add	r24, r24
     f6c:	88 0f       	add	r24, r24
					atrasoms(1000);
     f6e:	98 0e       	add	r9, r24
     f70:	88 2d       	mov	r24, r8
     f72:	89 19       	sub	r24, r9
					
					clear_display();
     f74:	80 5d       	subi	r24, 0xD0	; 208
     f76:	52 db       	rcall	.-2396   	; 0x61c <_Z12lcdWritecharc>
					lcdWritePos("Vagas 1 andar:",0,0);
     f78:	88 ee       	ldi	r24, 0xE8	; 232
     f7a:	93 e0       	ldi	r25, 0x03	; 3
     f7c:	00 d9       	rcall	.-3584   	; 0x17e <_Z8atrasomsj>
     f7e:	51 db       	rcall	.-2398   	; 0x622 <_Z13clear_displayv>
     f80:	40 e0       	ldi	r20, 0x00	; 0
     f82:	60 e0       	ldi	r22, 0x00	; 0
					tmp = 36-contAndar[1];
     f84:	8e e6       	ldi	r24, 0x6E	; 110
     f86:	92 e0       	ldi	r25, 0x02	; 2
     f88:	9a db       	rcall	.-2252   	; 0x6be <_Z11lcdWritePosPccc>
     f8a:	c2 55       	subi	r28, 0x52	; 82
     f8c:	df 4f       	sbci	r29, 0xFF	; 255
     f8e:	88 81       	ld	r24, Y
					lcdWritechar(tmp/10+0x30);
     f90:	ce 5a       	subi	r28, 0xAE	; 174
     f92:	d0 40       	sbci	r29, 0x00	; 0
     f94:	80 2e       	mov	r8, r16
     f96:	88 1a       	sub	r8, r24
     f98:	81 9e       	mul	r8, r17
     f9a:	91 2c       	mov	r9, r1
     f9c:	11 24       	eor	r1, r1
     f9e:	96 94       	lsr	r9
     fa0:	96 94       	lsr	r9
					lcdWritechar(tmp%10+0x30);
     fa2:	96 94       	lsr	r9
     fa4:	80 e3       	ldi	r24, 0x30	; 48
     fa6:	89 0d       	add	r24, r9
     fa8:	39 db       	rcall	.-2446   	; 0x61c <_Z12lcdWritecharc>
     faa:	99 0c       	add	r9, r9
     fac:	89 2d       	mov	r24, r9
     fae:	88 0f       	add	r24, r24
     fb0:	88 0f       	add	r24, r24
     fb2:	98 0e       	add	r9, r24
					atrasoms(1000);
     fb4:	88 2d       	mov	r24, r8
     fb6:	89 19       	sub	r24, r9
     fb8:	80 5d       	subi	r24, 0xD0	; 208
					
					clear_display();
     fba:	30 db       	rcall	.-2464   	; 0x61c <_Z12lcdWritecharc>
     fbc:	88 ee       	ldi	r24, 0xE8	; 232
					lcdWritePos("Vagas 2 andar:",0,0);
     fbe:	93 e0       	ldi	r25, 0x03	; 3
     fc0:	de d8       	rcall	.-3652   	; 0x17e <_Z8atrasomsj>
     fc2:	2f db       	rcall	.-2466   	; 0x622 <_Z13clear_displayv>
     fc4:	40 e0       	ldi	r20, 0x00	; 0
     fc6:	60 e0       	ldi	r22, 0x00	; 0
					tmp = 36-contAndar[2];
     fc8:	8d e7       	ldi	r24, 0x7D	; 125
     fca:	92 e0       	ldi	r25, 0x02	; 2
     fcc:	78 db       	rcall	.-2320   	; 0x6be <_Z11lcdWritePosPccc>
     fce:	c1 55       	subi	r28, 0x51	; 81
     fd0:	df 4f       	sbci	r29, 0xFF	; 255
					lcdWritechar(tmp/10+0x30);
     fd2:	88 81       	ld	r24, Y
     fd4:	cf 5a       	subi	r28, 0xAF	; 175
     fd6:	d0 40       	sbci	r29, 0x00	; 0
     fd8:	08 1b       	sub	r16, r24
     fda:	01 9f       	mul	r16, r17
     fdc:	11 2d       	mov	r17, r1
     fde:	11 24       	eor	r1, r1
     fe0:	16 95       	lsr	r17
     fe2:	16 95       	lsr	r17
					lcdWritechar(tmp%10+0x30);
     fe4:	16 95       	lsr	r17
     fe6:	80 e3       	ldi	r24, 0x30	; 48
     fe8:	81 0f       	add	r24, r17
     fea:	18 db       	rcall	.-2512   	; 0x61c <_Z12lcdWritecharc>
     fec:	11 0f       	add	r17, r17
     fee:	81 2f       	mov	r24, r17
     ff0:	88 0f       	add	r24, r24
     ff2:	88 0f       	add	r24, r24
     ff4:	18 0f       	add	r17, r24
					atrasoms(1000);
     ff6:	80 2f       	mov	r24, r16
     ff8:	81 1b       	sub	r24, r17
     ffa:	80 5d       	subi	r24, 0xD0	; 208
     ffc:	0f db       	rcall	.-2530   	; 0x61c <_Z12lcdWritecharc>
					telaNova = 1;
     ffe:	88 ee       	ldi	r24, 0xE8	; 232
    1000:	93 e0       	ldi	r25, 0x03	; 3
    1002:	bd d8       	rcall	.-3718   	; 0x17e <_Z8atrasomsj>
				}
				if(telaNova){
    1004:	81 e0       	ldi	r24, 0x01	; 1
    1006:	80 93 00 02 	sts	0x0200, r24	; 0x800200 <__DATA_REGION_ORIGIN__>
    100a:	04 c0       	rjmp	.+8      	; 0x1014 <__EEPROM_REGION_LENGTH__+0x14>
					clear_display();
    100c:	80 91 00 02 	lds	r24, 0x0200	; 0x800200 <__DATA_REGION_ORIGIN__>
					lcdWritePos("EstacionaMicros",0,0);					
    1010:	88 23       	and	r24, r24
    1012:	41 f0       	breq	.+16     	; 0x1024 <__EEPROM_REGION_LENGTH__+0x24>
    1014:	06 db       	rcall	.-2548   	; 0x622 <_Z13clear_displayv>
    1016:	40 e0       	ldi	r20, 0x00	; 0
    1018:	60 e0       	ldi	r22, 0x00	; 0
    101a:	8c e8       	ldi	r24, 0x8C	; 140
					indice=0;
					telaNova=0;			
    101c:	92 e0       	ldi	r25, 0x02	; 2
    101e:	4f db       	rcall	.-2402   	; 0x6be <_Z11lcdWritePosPccc>
				}
				char horastr[3];
				if(horaLetreiro.diffSec(relogio) >= 1 /*|| 1*/){
    1020:	10 92 00 02 	sts	0x0200, r1	; 0x800200 <__DATA_REGION_ORIGIN__>
    1024:	20 91 2e 03 	lds	r18, 0x032E	; 0x80032e <__data_end>
    1028:	30 91 2f 03 	lds	r19, 0x032F	; 0x80032f <__data_end+0x1>
    102c:	40 91 30 03 	lds	r20, 0x0330	; 0x800330 <__data_end+0x2>
    1030:	50 91 31 03 	lds	r21, 0x0331	; 0x800331 <__data_end+0x3>
    1034:	60 91 32 03 	lds	r22, 0x0332	; 0x800332 <__data_end+0x4>
    1038:	ce 01       	movw	r24, r28
    103a:	85 5b       	subi	r24, 0xB5	; 181
    103c:	9f 4f       	sbci	r25, 0xFF	; 255
    103e:	1f d9       	rcall	.-3522   	; 0x27e <_ZN8DataHora7diffSecES_>
					
					setCursor(0,1);
    1040:	18 16       	cp	r1, r24
    1042:	19 06       	cpc	r1, r25
    1044:	0c f0       	brlt	.+2      	; 0x1048 <__EEPROM_REGION_LENGTH__+0x48>
    1046:	2d c2       	rjmp	.+1114   	; 0x14a2 <__EEPROM_REGION_LENGTH__+0x4a2>
    1048:	61 e0       	ldi	r22, 0x01	; 1
    104a:	70 e0       	ldi	r23, 0x00	; 0
					itoa(relogio.hora, horastr, 10);
    104c:	80 e0       	ldi	r24, 0x00	; 0
    104e:	90 e0       	ldi	r25, 0x00	; 0
    1050:	fa da       	rcall	.-2572   	; 0x646 <_Z9setCursorjj>
    1052:	0e e2       	ldi	r16, 0x2E	; 46
    1054:	13 e0       	ldi	r17, 0x03	; 3
    1056:	f8 01       	movw	r30, r16
    1058:	82 81       	ldd	r24, Z+2	; 0x02
    105a:	4a e0       	ldi	r20, 0x0A	; 10
    105c:	be 01       	movw	r22, r28
					lcdWrite(horastr);
    105e:	61 54       	subi	r22, 0x41	; 65
    1060:	7f 4f       	sbci	r23, 0xFF	; 255
    1062:	90 e0       	ldi	r25, 0x00	; 0
    1064:	77 d4       	rcall	.+2286   	; 0x1954 <__itoa_ncheck>
    1066:	ce 01       	movw	r24, r28
					lcdWritechar(':');
    1068:	81 54       	subi	r24, 0x41	; 65
    106a:	9f 4f       	sbci	r25, 0xFF	; 255
    106c:	08 db       	rcall	.-2544   	; 0x67e <_Z8lcdWritePc>
    106e:	8a e3       	ldi	r24, 0x3A	; 58
    1070:	d5 da       	rcall	.-2646   	; 0x61c <_Z12lcdWritecharc>
    1072:	f8 01       	movw	r30, r16
    1074:	83 81       	ldd	r24, Z+3	; 0x03
    1076:	4a e0       	ldi	r20, 0x0A	; 10
    1078:	be 01       	movw	r22, r28
    107a:	61 54       	subi	r22, 0x41	; 65
    107c:	7f 4f       	sbci	r23, 0xFF	; 255
					itoa(relogio.min, horastr, 10);
					lcdWrite(horastr);
    107e:	90 e0       	ldi	r25, 0x00	; 0
    1080:	69 d4       	rcall	.+2258   	; 0x1954 <__itoa_ncheck>
    1082:	ce 01       	movw	r24, r28
    1084:	81 54       	subi	r24, 0x41	; 65
					lcdWritechar(':');
    1086:	9f 4f       	sbci	r25, 0xFF	; 255
    1088:	fa da       	rcall	.-2572   	; 0x67e <_Z8lcdWritePc>
    108a:	8a e3       	ldi	r24, 0x3A	; 58
    108c:	c7 da       	rcall	.-2674   	; 0x61c <_Z12lcdWritecharc>
    108e:	f8 01       	movw	r30, r16
    1090:	84 81       	ldd	r24, Z+4	; 0x04
    1092:	4a e0       	ldi	r20, 0x0A	; 10
    1094:	be 01       	movw	r22, r28
    1096:	61 54       	subi	r22, 0x41	; 65
    1098:	7f 4f       	sbci	r23, 0xFF	; 255
					itoa(relogio.seg, horastr, 10);
					lcdWrite(horastr);
    109a:	90 e0       	ldi	r25, 0x00	; 0
    109c:	5b d4       	rcall	.+2230   	; 0x1954 <__itoa_ncheck>
    109e:	ce 01       	movw	r24, r28
    10a0:	81 54       	subi	r24, 0x41	; 65
    10a2:	9f 4f       	sbci	r25, 0xFF	; 255
						}else{
							lcdWritechar(letreiro[i+indice]);
						}
					}*/
					indice++;
					horaLetreiro.setByDataHora(relogio);
    10a4:	ec da       	rcall	.-2600   	; 0x67e <_Z8lcdWritePc>
    10a6:	20 91 2e 03 	lds	r18, 0x032E	; 0x80032e <__data_end>
    10aa:	30 91 2f 03 	lds	r19, 0x032F	; 0x80032f <__data_end+0x1>
    10ae:	40 91 30 03 	lds	r20, 0x0330	; 0x800330 <__data_end+0x2>
    10b2:	50 91 31 03 	lds	r21, 0x0331	; 0x800331 <__data_end+0x3>
    10b6:	60 91 32 03 	lds	r22, 0x0332	; 0x800332 <__data_end+0x4>
    10ba:	ce 01       	movw	r24, r28
    10bc:	85 5b       	subi	r24, 0xB5	; 181
//					lcdWritecharPos(horaLetreiro.seg/10+0x30, 3,1);
//					lcdWritecharPos(horaLetreiro.seg%10+0x30, 4,1);
				}
				break;
			case NUMEROCARTAO:
				if(telaNova){
    10be:	9f 4f       	sbci	r25, 0xFF	; 255
    10c0:	95 d8       	rcall	.-3798   	; 0x1ec <_ZN8DataHora13setByDataHoraES_>
    10c2:	ef c1       	rjmp	.+990    	; 0x14a2 <__EEPROM_REGION_LENGTH__+0x4a2>
    10c4:	80 91 00 02 	lds	r24, 0x0200	; 0x800200 <__DATA_REGION_ORIGIN__>
					if(carros[carroSaida].estEspecial){
    10c8:	88 23       	and	r24, r24
    10ca:	09 f4       	brne	.+2      	; 0x10ce <__EEPROM_REGION_LENGTH__+0xce>
    10cc:	61 c0       	rjmp	.+194    	; 0x1190 <__EEPROM_REGION_LENGTH__+0x190>
    10ce:	87 e1       	ldi	r24, 0x17	; 23
    10d0:	8c 9d       	mul	r24, r12
    10d2:	f0 01       	movw	r30, r0
    10d4:	8d 9d       	mul	r24, r13
    10d6:	f0 0d       	add	r31, r0
    10d8:	11 24       	eor	r1, r1
    10da:	ed 5c       	subi	r30, 0xCD	; 205
    10dc:	fc 4f       	sbci	r31, 0xFC	; 252
						clear_display();
    10de:	85 89       	ldd	r24, Z+21	; 0x15
						lcdWritePos("Vaga Ilegal",0,0);
    10e0:	88 23       	and	r24, r24
    10e2:	c9 f0       	breq	.+50     	; 0x1116 <__EEPROM_REGION_LENGTH__+0x116>
    10e4:	9e da       	rcall	.-2756   	; 0x622 <_Z13clear_displayv>
    10e6:	40 e0       	ldi	r20, 0x00	; 0
    10e8:	60 e0       	ldi	r22, 0x00	; 0
    10ea:	8c e9       	ldi	r24, 0x9C	; 156
						lcdWritePos("Multa se reincid",0,1);
    10ec:	92 e0       	ldi	r25, 0x02	; 2
    10ee:	e7 da       	rcall	.-2610   	; 0x6be <_Z11lcdWritePosPccc>
    10f0:	41 e0       	ldi	r20, 0x01	; 1
    10f2:	60 e0       	ldi	r22, 0x00	; 0
    10f4:	88 ea       	ldi	r24, 0xA8	; 168
    10f6:	92 e0       	ldi	r25, 0x02	; 2
						if (carros[carroSaida].estEspecialAntes)
    10f8:	e2 da       	rcall	.-2620   	; 0x6be <_Z11lcdWritePosPccc>
    10fa:	87 e1       	ldi	r24, 0x17	; 23
    10fc:	8c 9d       	mul	r24, r12
    10fe:	f0 01       	movw	r30, r0
    1100:	8d 9d       	mul	r24, r13
    1102:	f0 0d       	add	r31, r0
    1104:	11 24       	eor	r1, r1
    1106:	ed 5c       	subi	r30, 0xCD	; 205
						{
							lcdWrite("Reincidente");
    1108:	fc 4f       	sbci	r31, 0xFC	; 252
    110a:	86 89       	ldd	r24, Z+22	; 0x16
    110c:	88 23       	and	r24, r24
    110e:	19 f0       	breq	.+6      	; 0x1116 <__EEPROM_REGION_LENGTH__+0x116>
						}
					}
					clear_display();
    1110:	89 eb       	ldi	r24, 0xB9	; 185
    1112:	92 e0       	ldi	r25, 0x02	; 2
					lcdWritePos("Pague R$ ",0,0);
    1114:	b4 da       	rcall	.-2712   	; 0x67e <_Z8lcdWritePc>
    1116:	85 da       	rcall	.-2806   	; 0x622 <_Z13clear_displayv>
    1118:	40 e0       	ldi	r20, 0x00	; 0
    111a:	60 e0       	ldi	r22, 0x00	; 0
    111c:	85 ec       	ldi	r24, 0xC5	; 197
    111e:	92 e0       	ldi	r25, 0x02	; 2
					//int pgto = carros[carroSaida].calculaPgto(relogio);
					char pgto[5];
					itoa(carros[carroSaida].calculaPgto(relogio), pgto, 10);
    1120:	ce da       	rcall	.-2660   	; 0x6be <_Z11lcdWritePosPccc>
    1122:	27 e1       	ldi	r18, 0x17	; 23
    1124:	2c 9d       	mul	r18, r12
    1126:	c0 01       	movw	r24, r0
    1128:	2d 9d       	mul	r18, r13
    112a:	90 0d       	add	r25, r0
    112c:	11 24       	eor	r1, r1
    112e:	20 91 2e 03 	lds	r18, 0x032E	; 0x80032e <__data_end>
    1132:	30 91 2f 03 	lds	r19, 0x032F	; 0x80032f <__data_end+0x1>
    1136:	40 91 30 03 	lds	r20, 0x0330	; 0x800330 <__data_end+0x2>
    113a:	50 91 31 03 	lds	r21, 0x0331	; 0x800331 <__data_end+0x3>
    113e:	60 91 32 03 	lds	r22, 0x0332	; 0x800332 <__data_end+0x4>
    1142:	8d 5c       	subi	r24, 0xCD	; 205
    1144:	9c 4f       	sbci	r25, 0xFC	; 252
    1146:	8e d9       	rcall	.-3300   	; 0x464 <_ZN7Veiculo11calculaPgtoE8DataHora>
    1148:	4a e0       	ldi	r20, 0x0A	; 10
    114a:	be 01       	movw	r22, r28
					lcdWrite(pgto);
    114c:	61 54       	subi	r22, 0x41	; 65
    114e:	7f 4f       	sbci	r23, 0xFF	; 255
    1150:	01 d4       	rcall	.+2050   	; 0x1954 <__itoa_ncheck>
    1152:	ce 01       	movw	r24, r28
					
					lcdWritePos("CARTAO",0,1);
    1154:	81 54       	subi	r24, 0x41	; 65
    1156:	9f 4f       	sbci	r25, 0xFF	; 255
    1158:	92 da       	rcall	.-2780   	; 0x67e <_Z8lcdWritePc>
    115a:	41 e0       	ldi	r20, 0x01	; 1
    115c:	60 e0       	ldi	r22, 0x00	; 0
    115e:	8f ec       	ldi	r24, 0xCF	; 207
					telaNova = 0;
    1160:	92 e0       	ldi	r25, 0x02	; 2
    1162:	ad da       	rcall	.-2726   	; 0x6be <_Z11lcdWritePosPccc>
					
					for(int i=0; i<numeroCartaoPos; i++){
    1164:	10 92 00 02 	sts	0x0200, r1	; 0x800200 <__DATA_REGION_ORIGIN__>
    1168:	77 20       	and	r7, r7
    116a:	91 f0       	breq	.+36     	; 0x1190 <__EEPROM_REGION_LENGTH__+0x190>
    116c:	8e 01       	movw	r16, r28
    116e:	00 5b       	subi	r16, 0xB0	; 176
    1170:	1f 4f       	sbci	r17, 0xFF	; 255
						setCursor(0,1);
    1172:	48 01       	movw	r8, r16
    1174:	87 0c       	add	r8, r7
    1176:	91 1c       	adc	r9, r1
    1178:	61 e0       	ldi	r22, 0x01	; 1
    117a:	70 e0       	ldi	r23, 0x00	; 0
    117c:	80 e0       	ldi	r24, 0x00	; 0
						lcdWritechar(numeroCartao[i]);
    117e:	90 e0       	ldi	r25, 0x00	; 0
    1180:	62 da       	rcall	.-2876   	; 0x646 <_Z9setCursorjj>
    1182:	f8 01       	movw	r30, r16
    1184:	81 91       	ld	r24, Z+
					lcdWrite(pgto);
					
					lcdWritePos("CARTAO",0,1);
					telaNova = 0;
					
					for(int i=0; i<numeroCartaoPos; i++){
    1186:	8f 01       	movw	r16, r30
    1188:	49 da       	rcall	.-2926   	; 0x61c <_Z12lcdWritecharc>
    118a:	80 16       	cp	r8, r16
						setCursor(0,1);
						lcdWritechar(numeroCartao[i]);
					}
				}
				novoBotao = le_teclado();
    118c:	91 06       	cpc	r9, r17
    118e:	a1 f7       	brne	.-24     	; 0x1178 <__EEPROM_REGION_LENGTH__+0x178>
				if(novoBotao == (char)-1){
    1190:	72 d3       	rcall	.+1764   	; 0x1876 <_Z10le_tecladov>
    1192:	8f 3f       	cpi	r24, 0xFF	; 255
					
				}else if(novoBotao == '*'){
    1194:	09 f4       	brne	.+2      	; 0x1198 <__EEPROM_REGION_LENGTH__+0x198>
    1196:	85 c1       	rjmp	.+778    	; 0x14a2 <__EEPROM_REGION_LENGTH__+0x4a2>
					if(numeroCartaoPos>0){
    1198:	8a 32       	cpi	r24, 0x2A	; 42
    119a:	81 f4       	brne	.+32     	; 0x11bc <__EEPROM_REGION_LENGTH__+0x1bc>
						numeroCartaoPos--;
						numeroCartao[numeroCartaoPos]='\0';
    119c:	77 20       	and	r7, r7
    119e:	09 f4       	brne	.+2      	; 0x11a2 <__EEPROM_REGION_LENGTH__+0x1a2>
    11a0:	80 c1       	rjmp	.+768    	; 0x14a2 <__EEPROM_REGION_LENGTH__+0x4a2>
    11a2:	7a 94       	dec	r7
    11a4:	e0 e5       	ldi	r30, 0x50	; 80
    11a6:	f0 e0       	ldi	r31, 0x00	; 0
    11a8:	ec 0f       	add	r30, r28
						lcdWritecharPos(' ',numeroCartaoPos,1);
    11aa:	fd 1f       	adc	r31, r29
    11ac:	e7 0d       	add	r30, r7
    11ae:	f1 1d       	adc	r31, r1
    11b0:	10 82       	st	Z, r1
    11b2:	41 e0       	ldi	r20, 0x01	; 1
    11b4:	67 2d       	mov	r22, r7
					}
				}else if(novoBotao == '#'){
    11b6:	80 e2       	ldi	r24, 0x20	; 32
    11b8:	8f da       	rcall	.-2786   	; 0x6d8 <_Z15lcdWritecharPosccc>
					if(numeroCartaoPos==6){
    11ba:	73 c1       	rjmp	.+742    	; 0x14a2 <__EEPROM_REGION_LENGTH__+0x4a2>
    11bc:	83 32       	cpi	r24, 0x23	; 35
    11be:	d9 f4       	brne	.+54     	; 0x11f6 <__EEPROM_REGION_LENGTH__+0x1f6>
						numeroCartao[6]='\0';
    11c0:	f6 e0       	ldi	r31, 0x06	; 6
    11c2:	7f 12       	cpse	r7, r31
    11c4:	6e c1       	rjmp	.+732    	; 0x14a2 <__EEPROM_REGION_LENGTH__+0x4a2>
						escreveVetor("EC",2);
    11c6:	67 96       	adiw	r28, 0x17	; 23
    11c8:	1f ae       	std	Y+63, r1	; 0x3f
    11ca:	67 97       	sbiw	r28, 0x17	; 23
    11cc:	62 e0       	ldi	r22, 0x02	; 2
    11ce:	70 e0       	ldi	r23, 0x00	; 0
    11d0:	8c e1       	ldi	r24, 0x1C	; 28
						escreve(7);
    11d2:	92 e0       	ldi	r25, 0x02	; 2
    11d4:	45 d2       	rcall	.+1162   	; 0x1660 <_Z12escreveVetorPci>
    11d6:	87 e0       	ldi	r24, 0x07	; 7
						escreveVetor(numeroCartao, 7);
    11d8:	27 d2       	rcall	.+1102   	; 0x1628 <_Z7escrevec>
    11da:	67 e0       	ldi	r22, 0x07	; 7
    11dc:	70 e0       	ldi	r23, 0x00	; 0
    11de:	ce 01       	movw	r24, r28
    11e0:	80 5b       	subi	r24, 0xB0	; 176
						numeroCartaoPos = 0;

						telaNova = 1;
    11e2:	9f 4f       	sbci	r25, 0xFF	; 255
    11e4:	3d d2       	rcall	.+1146   	; 0x1660 <_Z12escreveVetorPci>
    11e6:	81 e0       	ldi	r24, 0x01	; 1
						estado = AGUARDACARTAO;
    11e8:	80 93 00 02 	sts	0x0200, r24	; 0x800200 <__DATA_REGION_ORIGIN__>
    11ec:	83 e0       	ldi	r24, 0x03	; 3
					if(numeroCartaoPos==6){
						numeroCartao[6]='\0';
						escreveVetor("EC",2);
						escreve(7);
						escreveVetor(numeroCartao, 7);
						numeroCartaoPos = 0;
    11ee:	80 93 01 02 	sts	0x0201, r24	; 0x800201 <estado>

						telaNova = 1;
						estado = AGUARDACARTAO;
					}
				}else if(novoBotao != (char)-1){
					numeroCartao[numeroCartaoPos]=novoBotao;
    11f2:	71 2c       	mov	r7, r1
    11f4:	56 c1       	rjmp	.+684    	; 0x14a2 <__EEPROM_REGION_LENGTH__+0x4a2>
    11f6:	e0 e5       	ldi	r30, 0x50	; 80
    11f8:	f0 e0       	ldi	r31, 0x00	; 0
    11fa:	ec 0f       	add	r30, r28
					lcdWritecharPos(novoBotao,numeroCartaoPos,1); //2a linha
    11fc:	fd 1f       	adc	r31, r29
    11fe:	e7 0d       	add	r30, r7
    1200:	f1 1d       	adc	r31, r1
					numeroCartaoPos++;
    1202:	80 83       	st	Z, r24
    1204:	41 e0       	ldi	r20, 0x01	; 1
				}
				break;
			case AGUARDACARTAO:
				if(telaNova){
    1206:	67 2d       	mov	r22, r7
    1208:	67 da       	rcall	.-2866   	; 0x6d8 <_Z15lcdWritecharPosccc>
    120a:	73 94       	inc	r7
					clear_display();
    120c:	4a c1       	rjmp	.+660    	; 0x14a2 <__EEPROM_REGION_LENGTH__+0x4a2>
    120e:	80 91 00 02 	lds	r24, 0x0200	; 0x800200 <__DATA_REGION_ORIGIN__>
					lcdWritePos("Espera Resp...", 0 ,0);
    1212:	88 23       	and	r24, r24
    1214:	41 f0       	breq	.+16     	; 0x1226 <__EEPROM_REGION_LENGTH__+0x226>
    1216:	05 da       	rcall	.-3062   	; 0x622 <_Z13clear_displayv>
    1218:	40 e0       	ldi	r20, 0x00	; 0
    121a:	60 e0       	ldi	r22, 0x00	; 0
					telaNova = 0;
    121c:	86 ed       	ldi	r24, 0xD6	; 214
    121e:	92 e0       	ldi	r25, 0x02	; 2
				}
				if(cartaoRepostaNova){
    1220:	4e da       	rcall	.-2916   	; 0x6be <_Z11lcdWritePosPccc>
    1222:	10 92 00 02 	sts	0x0200, r1	; 0x800200 <__DATA_REGION_ORIGIN__>
					cartaoRepostaNova = 0;
					clear_display();
    1226:	66 20       	and	r6, r6
    1228:	09 f4       	brne	.+2      	; 0x122c <__EEPROM_REGION_LENGTH__+0x22c>
					lcdWritePos(cartaoResposta,0,0);
    122a:	3b c1       	rjmp	.+630    	; 0x14a2 <__EEPROM_REGION_LENGTH__+0x4a2>
    122c:	fa d9       	rcall	.-3084   	; 0x622 <_Z13clear_displayv>
    122e:	40 e0       	ldi	r20, 0x00	; 0
    1230:	60 e0       	ldi	r22, 0x00	; 0
    1232:	ce 01       	movw	r24, r28
    1234:	82 5a       	subi	r24, 0xA2	; 162
    1236:	9f 4f       	sbci	r25, 0xFF	; 255
					atrasoms(1000);
    1238:	42 da       	rcall	.-2940   	; 0x6be <_Z11lcdWritePosPccc>
    123a:	88 ee       	ldi	r24, 0xE8	; 232
    123c:	93 e0       	ldi	r25, 0x03	; 3
					telaNova = 1;
    123e:	0e 94 bf 00 	call	0x17e	; 0x17e <_Z8atrasomsj>
    1242:	81 e0       	ldi	r24, 0x01	; 1
					if(!strcmp(cartaoResposta, "Cartao Invalido")){
    1244:	80 93 00 02 	sts	0x0200, r24	; 0x800200 <__DATA_REGION_ORIGIN__>
    1248:	65 ee       	ldi	r22, 0xE5	; 229
    124a:	72 e0       	ldi	r23, 0x02	; 2
    124c:	ce 01       	movw	r24, r28
    124e:	82 5a       	subi	r24, 0xA2	; 162
    1250:	9f 4f       	sbci	r25, 0xFF	; 255
    1252:	77 d3       	rcall	.+1774   	; 0x1942 <strcmp>
    1254:	89 2b       	or	r24, r25
						estado = ESTADOINICIAL;
    1256:	21 f4       	brne	.+8      	; 0x1260 <__EEPROM_REGION_LENGTH__+0x260>
    1258:	10 92 01 02 	sts	0x0201, r1	; 0x800201 <estado>
						telaNova = 1;
					}else{
						numeroSenhaPos = 0;
						estado = SENHA;
    125c:	61 2c       	mov	r6, r1
    125e:	21 c1       	rjmp	.+578    	; 0x14a2 <__EEPROM_REGION_LENGTH__+0x4a2>
    1260:	82 e0       	ldi	r24, 0x02	; 2
					clear_display();
					lcdWritePos("Espera Resp...", 0 ,0);
					telaNova = 0;
				}
				if(cartaoRepostaNova){
					cartaoRepostaNova = 0;
    1262:	80 93 01 02 	sts	0x0201, r24	; 0x800201 <estado>
					telaNova = 1;
					if(!strcmp(cartaoResposta, "Cartao Invalido")){
						estado = ESTADOINICIAL;
						telaNova = 1;
					}else{
						numeroSenhaPos = 0;
    1266:	61 2c       	mov	r6, r1
						telaNova = 1;
					}
				}
				break;
			case SENHA:
				if(telaNova){
    1268:	31 2c       	mov	r3, r1
    126a:	1b c1       	rjmp	.+566    	; 0x14a2 <__EEPROM_REGION_LENGTH__+0x4a2>
    126c:	80 91 00 02 	lds	r24, 0x0200	; 0x800200 <__DATA_REGION_ORIGIN__>
					clear_display();
					lcdWritePos(cartaoResposta, 0,0);
    1270:	88 23       	and	r24, r24
    1272:	71 f0       	breq	.+28     	; 0x1290 <__EEPROM_REGION_LENGTH__+0x290>
    1274:	d6 d9       	rcall	.-3156   	; 0x622 <_Z13clear_displayv>
    1276:	40 e0       	ldi	r20, 0x00	; 0
    1278:	60 e0       	ldi	r22, 0x00	; 0
    127a:	ce 01       	movw	r24, r28
					lcdWritePos("Senha:",0,1);
    127c:	82 5a       	subi	r24, 0xA2	; 162
    127e:	9f 4f       	sbci	r25, 0xFF	; 255
    1280:	1e da       	rcall	.-3012   	; 0x6be <_Z11lcdWritePosPccc>
    1282:	41 e0       	ldi	r20, 0x01	; 1
    1284:	60 e0       	ldi	r22, 0x00	; 0
					telaNova  = 0;
    1286:	85 ef       	ldi	r24, 0xF5	; 245
    1288:	92 e0       	ldi	r25, 0x02	; 2
				}
				novoBotao = le_teclado();
    128a:	19 da       	rcall	.-3022   	; 0x6be <_Z11lcdWritePosPccc>
    128c:	10 92 00 02 	sts	0x0200, r1	; 0x800200 <__DATA_REGION_ORIGIN__>
				if(novoBotao == (char)-1){
    1290:	f2 d2       	rcall	.+1508   	; 0x1876 <_Z10le_tecladov>
    1292:	8f 3f       	cpi	r24, 0xFF	; 255

				}else if(novoBotao == '#'){
    1294:	09 f4       	brne	.+2      	; 0x1298 <__EEPROM_REGION_LENGTH__+0x298>
    1296:	05 c1       	rjmp	.+522    	; 0x14a2 <__EEPROM_REGION_LENGTH__+0x4a2>
    1298:	83 32       	cpi	r24, 0x23	; 35
					if(numeroSenhaPos==6){
    129a:	09 f0       	breq	.+2      	; 0x129e <__EEPROM_REGION_LENGTH__+0x29e>
    129c:	3d c0       	rjmp	.+122    	; 0x1318 <__EEPROM_REGION_LENGTH__+0x318>
						numeroSenha[6]='\0';
    129e:	86 e0       	ldi	r24, 0x06	; 6
    12a0:	38 12       	cpse	r3, r24
    12a2:	ff c0       	rjmp	.+510    	; 0x14a2 <__EEPROM_REGION_LENGTH__+0x4a2>
						char strpgto[3];
						int valorAguardaResposta = carros[carroSaida].calculaPgto(relogio);
    12a4:	6e 96       	adiw	r28, 0x1e	; 30
    12a6:	1f ae       	std	Y+63, r1	; 0x3f
    12a8:	6e 97       	sbiw	r28, 0x1e	; 30
    12aa:	27 e1       	ldi	r18, 0x17	; 23
    12ac:	2c 9d       	mul	r18, r12
    12ae:	c0 01       	movw	r24, r0
    12b0:	2d 9d       	mul	r18, r13
    12b2:	90 0d       	add	r25, r0
    12b4:	11 24       	eor	r1, r1
    12b6:	20 91 2e 03 	lds	r18, 0x032E	; 0x80032e <__data_end>
    12ba:	30 91 2f 03 	lds	r19, 0x032F	; 0x80032f <__data_end+0x1>
    12be:	40 91 30 03 	lds	r20, 0x0330	; 0x800330 <__data_end+0x2>
    12c2:	50 91 31 03 	lds	r21, 0x0331	; 0x800331 <__data_end+0x3>
    12c6:	60 91 32 03 	lds	r22, 0x0332	; 0x800332 <__data_end+0x4>
    12ca:	8d 5c       	subi	r24, 0xCD	; 205
    12cc:	9c 4f       	sbci	r25, 0xFC	; 252
    12ce:	ca d8       	rcall	.-3692   	; 0x464 <_ZN7Veiculo11calculaPgtoE8DataHora>
    12d0:	4a e0       	ldi	r20, 0x0A	; 10
    12d2:	be 01       	movw	r22, r28
    12d4:	61 54       	subi	r22, 0x41	; 65
						itoa(valorAguardaResposta,strpgto,10);
						strpgto[2] = '\0';
    12d6:	7f 4f       	sbci	r23, 0xFF	; 255
    12d8:	3d d3       	rcall	.+1658   	; 0x1954 <__itoa_ncheck>
    12da:	cf 53       	subi	r28, 0x3F	; 63
    12dc:	df 4f       	sbci	r29, 0xFF	; 255
    12de:	18 82       	st	Y, r1
						escreveVetor("EP", 2);
    12e0:	c1 5c       	subi	r28, 0xC1	; 193
    12e2:	d0 40       	sbci	r29, 0x00	; 0
    12e4:	62 e0       	ldi	r22, 0x02	; 2
    12e6:	70 e0       	ldi	r23, 0x00	; 0
    12e8:	8c ef       	ldi	r24, 0xFC	; 252
						escreve(10);
    12ea:	92 e0       	ldi	r25, 0x02	; 2
    12ec:	b9 d1       	rcall	.+882    	; 0x1660 <_Z12escreveVetorPci>
    12ee:	8a e0       	ldi	r24, 0x0A	; 10
						escreveVetor(numeroSenha,7);
    12f0:	9b d1       	rcall	.+822    	; 0x1628 <_Z7escrevec>
    12f2:	67 e0       	ldi	r22, 0x07	; 7
    12f4:	70 e0       	ldi	r23, 0x00	; 0
    12f6:	ce 01       	movw	r24, r28
    12f8:	89 5a       	subi	r24, 0xA9	; 169
    12fa:	9f 4f       	sbci	r25, 0xFF	; 255
    12fc:	b1 d1       	rcall	.+866    	; 0x1660 <_Z12escreveVetorPci>
						escreveVetor(strpgto, 3);
    12fe:	63 e0       	ldi	r22, 0x03	; 3
    1300:	70 e0       	ldi	r23, 0x00	; 0
    1302:	ce 01       	movw	r24, r28
    1304:	81 54       	subi	r24, 0x41	; 65
    1306:	9f 4f       	sbci	r25, 0xFF	; 255
    1308:	ab d1       	rcall	.+854    	; 0x1660 <_Z12escreveVetorPci>
    130a:	84 e0       	ldi	r24, 0x04	; 4
						estado=AGUARDASENHA;
    130c:	80 93 01 02 	sts	0x0201, r24	; 0x800201 <estado>
    1310:	81 e0       	ldi	r24, 0x01	; 1
						telaNova = 1;
    1312:	80 93 00 02 	sts	0x0200, r24	; 0x800200 <__DATA_REGION_ORIGIN__>
    1316:	c5 c0       	rjmp	.+394    	; 0x14a2 <__EEPROM_REGION_LENGTH__+0x4a2>
    1318:	8a 32       	cpi	r24, 0x2A	; 42
					}
				}else if(novoBotao == '*'){
    131a:	99 f4       	brne	.+38     	; 0x1342 <__EEPROM_REGION_LENGTH__+0x342>
    131c:	33 20       	and	r3, r3
					if(numeroSenhaPos > 0){
    131e:	09 f4       	brne	.+2      	; 0x1322 <__EEPROM_REGION_LENGTH__+0x322>
    1320:	c0 c0       	rjmp	.+384    	; 0x14a2 <__EEPROM_REGION_LENGTH__+0x4a2>
						numeroSenhaPos--;
    1322:	1f ef       	ldi	r17, 0xFF	; 255
    1324:	13 0d       	add	r17, r3
						numeroSenha[numeroSenhaPos]='\0';
    1326:	e7 e5       	ldi	r30, 0x57	; 87
    1328:	f0 e0       	ldi	r31, 0x00	; 0
    132a:	ec 0f       	add	r30, r28
    132c:	fd 1f       	adc	r31, r29
    132e:	e1 0f       	add	r30, r17
    1330:	f1 1d       	adc	r31, r1
    1332:	10 82       	st	Z, r1
						lcdWritecharPos(' ',numeroSenhaPos+6,1);
    1334:	65 e0       	ldi	r22, 0x05	; 5
    1336:	63 0d       	add	r22, r3
    1338:	41 e0       	ldi	r20, 0x01	; 1
    133a:	80 e2       	ldi	r24, 0x20	; 32
    133c:	cd d9       	rcall	.-3174   	; 0x6d8 <_Z15lcdWritecharPosccc>
						estado=AGUARDASENHA;
						telaNova = 1;
					}
				}else if(novoBotao == '*'){
					if(numeroSenhaPos > 0){
						numeroSenhaPos--;
    133e:	31 2e       	mov	r3, r17
    1340:	b0 c0       	rjmp	.+352    	; 0x14a2 <__EEPROM_REGION_LENGTH__+0x4a2>
						numeroSenha[numeroSenhaPos]='\0';
						lcdWritecharPos(' ',numeroSenhaPos+6,1);
					}
				}else if(novoBotao != (char)-1 && numeroSenhaPos < 6){
    1342:	95 e0       	ldi	r25, 0x05	; 5
    1344:	93 15       	cp	r25, r3
    1346:	08 f4       	brcc	.+2      	; 0x134a <__EEPROM_REGION_LENGTH__+0x34a>
    1348:	ac c0       	rjmp	.+344    	; 0x14a2 <__EEPROM_REGION_LENGTH__+0x4a2>
					numeroSenha[numeroSenhaPos]=novoBotao;
    134a:	e7 e5       	ldi	r30, 0x57	; 87
    134c:	f0 e0       	ldi	r31, 0x00	; 0
    134e:	ec 0f       	add	r30, r28
    1350:	fd 1f       	adc	r31, r29
    1352:	e3 0d       	add	r30, r3
    1354:	f1 1d       	adc	r31, r1
					lcdWritecharPos('*',numeroSenhaPos+6,1); //2a linha
    1356:	80 83       	st	Z, r24
    1358:	66 e0       	ldi	r22, 0x06	; 6
    135a:	63 0d       	add	r22, r3
    135c:	41 e0       	ldi	r20, 0x01	; 1
    135e:	8a e2       	ldi	r24, 0x2A	; 42
    1360:	bb d9       	rcall	.-3210   	; 0x6d8 <_Z15lcdWritecharPosccc>
					numeroSenhaPos++;
    1362:	33 94       	inc	r3
    1364:	9e c0       	rjmp	.+316    	; 0x14a2 <__EEPROM_REGION_LENGTH__+0x4a2>
				}
				break;
			case AGUARDASENHA:
				if(telaNova){
    1366:	80 91 00 02 	lds	r24, 0x0200	; 0x800200 <__DATA_REGION_ORIGIN__>
    136a:	88 23       	and	r24, r24
    136c:	41 f0       	breq	.+16     	; 0x137e <__EEPROM_REGION_LENGTH__+0x37e>
					clear_display();
    136e:	59 d9       	rcall	.-3406   	; 0x622 <_Z13clear_displayv>
    1370:	40 e0       	ldi	r20, 0x00	; 0
					lcdWritePos("Espera Resp...", 0 ,0);
    1372:	60 e0       	ldi	r22, 0x00	; 0
    1374:	86 ed       	ldi	r24, 0xD6	; 214
    1376:	92 e0       	ldi	r25, 0x02	; 2
    1378:	a2 d9       	rcall	.-3260   	; 0x6be <_Z11lcdWritePosPccc>
    137a:	10 92 00 02 	sts	0x0200, r1	; 0x800200 <__DATA_REGION_ORIGIN__>
					telaNova = 0;
    137e:	22 20       	and	r2, r2
				}
				if(senhaRespostaNova){
    1380:	09 f4       	brne	.+2      	; 0x1384 <__EEPROM_REGION_LENGTH__+0x384>
    1382:	8f c0       	rjmp	.+286    	; 0x14a2 <__EEPROM_REGION_LENGTH__+0x4a2>
    1384:	4e d9       	rcall	.-3428   	; 0x622 <_Z13clear_displayv>
					senhaRespostaNova = 0;
					clear_display();
    1386:	40 e0       	ldi	r20, 0x00	; 0
    1388:	60 e0       	ldi	r22, 0x00	; 0
					lcdWritePos(senhaResposta,0,0);
    138a:	ce 01       	movw	r24, r28
    138c:	82 58       	subi	r24, 0x82	; 130
    138e:	9f 4f       	sbci	r25, 0xFF	; 255
    1390:	96 d9       	rcall	.-3284   	; 0x6be <_Z11lcdWritePosPccc>
    1392:	88 ee       	ldi	r24, 0xE8	; 232
    1394:	93 e0       	ldi	r25, 0x03	; 3
    1396:	0e 94 bf 00 	call	0x17e	; 0x17e <_Z8atrasomsj>
					atrasoms(1000);
    139a:	81 e0       	ldi	r24, 0x01	; 1
    139c:	80 93 00 02 	sts	0x0200, r24	; 0x800200 <__DATA_REGION_ORIGIN__>
					telaNova = 1;
    13a0:	65 ee       	ldi	r22, 0xE5	; 229
    13a2:	72 e0       	ldi	r23, 0x02	; 2
    13a4:	ce 01       	movw	r24, r28
					senhaRespostaNova=0;
					if(!strcmp(senhaResposta, "Cartao Invalido")){ //se cartão é inválido, vai ESTADO INICIAL
    13a6:	82 58       	subi	r24, 0x82	; 130
    13a8:	9f 4f       	sbci	r25, 0xFF	; 255
    13aa:	cb d2       	rcall	.+1430   	; 0x1942 <strcmp>
    13ac:	89 2b       	or	r24, r25
    13ae:	21 f4       	brne	.+8      	; 0x13b8 <__EEPROM_REGION_LENGTH__+0x3b8>
    13b0:	10 92 01 02 	sts	0x0201, r1	; 0x800201 <estado>
    13b4:	21 2c       	mov	r2, r1
						estado = ESTADOINICIAL;
    13b6:	75 c0       	rjmp	.+234    	; 0x14a2 <__EEPROM_REGION_LENGTH__+0x4a2>
    13b8:	6f ef       	ldi	r22, 0xFF	; 255
					senhaRespostaNova = 0;
					clear_display();
					lcdWritePos(senhaResposta,0,0);
					atrasoms(1000);
					telaNova = 1;
					senhaRespostaNova=0;
    13ba:	72 e0       	ldi	r23, 0x02	; 2
    13bc:	ce 01       	movw	r24, r28
					if(!strcmp(senhaResposta, "Cartao Invalido")){ //se cartão é inválido, vai ESTADO INICIAL
						estado = ESTADOINICIAL;
					}else if(!strcmp(senhaResposta, "OK")){
    13be:	82 58       	subi	r24, 0x82	; 130
    13c0:	9f 4f       	sbci	r25, 0xFF	; 255
    13c2:	bf d2       	rcall	.+1406   	; 0x1942 <strcmp>
    13c4:	89 2b       	or	r24, r25
    13c6:	09 f0       	breq	.+2      	; 0x13ca <__EEPROM_REGION_LENGTH__+0x3ca>
    13c8:	3e c0       	rjmp	.+124    	; 0x1446 <__EEPROM_REGION_LENGTH__+0x446>
    13ca:	0f 2e       	mov	r0, r31
    13cc:	f7 e1       	ldi	r31, 0x17	; 23
    13ce:	9f 2e       	mov	r9, r31
    13d0:	f0 2d       	mov	r31, r0
						carros[carroSaida].pagar(valorAguardaResposta, relogio);
    13d2:	9c 9c       	mul	r9, r12
    13d4:	c0 01       	movw	r24, r0
    13d6:	9d 9c       	mul	r9, r13
    13d8:	90 0d       	add	r25, r0
    13da:	11 24       	eor	r1, r1
    13dc:	00 91 2e 03 	lds	r16, 0x032E	; 0x80032e <__data_end>
    13e0:	10 91 2f 03 	lds	r17, 0x032F	; 0x80032f <__data_end+0x1>
    13e4:	20 91 30 03 	lds	r18, 0x0330	; 0x800330 <__data_end+0x2>
    13e8:	30 91 31 03 	lds	r19, 0x0331	; 0x800331 <__data_end+0x3>
    13ec:	40 91 32 03 	lds	r20, 0x0332	; 0x800332 <__data_end+0x4>
    13f0:	60 e0       	ldi	r22, 0x00	; 0
    13f2:	70 e0       	ldi	r23, 0x00	; 0
    13f4:	8d 5c       	subi	r24, 0xCD	; 205
    13f6:	9c 4f       	sbci	r25, 0xFC	; 252
    13f8:	a3 d8       	rcall	.-3770   	; 0x540 <_ZN7Veiculo5pagarEi8DataHora>
    13fa:	82 e3       	ldi	r24, 0x32	; 50
    13fc:	c4 d9       	rcall	.-3192   	; 0x786 <_Z11cancelaAbrec>
    13fe:	10 92 01 02 	sts	0x0201, r1	; 0x800201 <estado>
    1402:	81 e0       	ldi	r24, 0x01	; 1
						cancelaAbre('2');
    1404:	80 93 00 02 	sts	0x0200, r24	; 0x800200 <__DATA_REGION_ORIGIN__>
    1408:	94 9c       	mul	r9, r4
						estado = ESTADOINICIAL;
    140a:	f0 01       	movw	r30, r0
    140c:	95 9c       	mul	r9, r5
						telaNova = 1;
    140e:	f0 0d       	add	r31, r0
    1410:	11 24       	eor	r1, r1
    1412:	ed 5c       	subi	r30, 0xCD	; 205
						escreveNota(carros[posCarro]);
    1414:	fc 4f       	sbci	r31, 0xFC	; 252
    1416:	8d b7       	in	r24, 0x3d	; 61
    1418:	9e b7       	in	r25, 0x3e	; 62
    141a:	47 97       	sbiw	r24, 0x17	; 23
    141c:	0f b6       	in	r0, 0x3f	; 63
    141e:	f8 94       	cli
    1420:	9e bf       	out	0x3e, r25	; 62
    1422:	0f be       	out	0x3f, r0	; 63
    1424:	8d bf       	out	0x3d, r24	; 61
    1426:	ad b7       	in	r26, 0x3d	; 61
    1428:	be b7       	in	r27, 0x3e	; 62
    142a:	11 96       	adiw	r26, 0x01	; 1
    142c:	87 e1       	ldi	r24, 0x17	; 23
    142e:	01 90       	ld	r0, Z+
    1430:	0d 92       	st	X+, r0
    1432:	8a 95       	dec	r24
    1434:	e1 f7       	brne	.-8      	; 0x142e <__EEPROM_REGION_LENGTH__+0x42e>
    1436:	3c da       	rcall	.-2952   	; 0x8b0 <_Z11escreveNota7Veiculo>
    1438:	0f b6       	in	r0, 0x3f	; 63
    143a:	f8 94       	cli
    143c:	de bf       	out	0x3e, r29	; 62
    143e:	0f be       	out	0x3f, r0	; 63
    1440:	cd bf       	out	0x3d, r28	; 61
    1442:	21 2c       	mov	r2, r1
    1444:	2e c0       	rjmp	.+92     	; 0x14a2 <__EEPROM_REGION_LENGTH__+0x4a2>
    1446:	62 e0       	ldi	r22, 0x02	; 2
    1448:	73 e0       	ldi	r23, 0x03	; 3
    144a:	ce 01       	movw	r24, r28
    144c:	82 58       	subi	r24, 0x82	; 130
    144e:	9f 4f       	sbci	r25, 0xFF	; 255
					senhaRespostaNova = 0;
					clear_display();
					lcdWritePos(senhaResposta,0,0);
					atrasoms(1000);
					telaNova = 1;
					senhaRespostaNova=0;
    1450:	78 d2       	rcall	.+1264   	; 0x1942 <strcmp>
    1452:	89 2b       	or	r24, r25
						carros[carroSaida].pagar(valorAguardaResposta, relogio);
						cancelaAbre('2');
						estado = ESTADOINICIAL;
						telaNova = 1;
						escreveNota(carros[posCarro]);
					}else if(!strcmp(senhaResposta, "Saldo Invalido")){
    1454:	21 f4       	brne	.+8      	; 0x145e <__EEPROM_REGION_LENGTH__+0x45e>
    1456:	10 92 01 02 	sts	0x0201, r1	; 0x800201 <estado>
    145a:	21 2c       	mov	r2, r1
    145c:	22 c0       	rjmp	.+68     	; 0x14a2 <__EEPROM_REGION_LENGTH__+0x4a2>
    145e:	61 e1       	ldi	r22, 0x11	; 17
    1460:	73 e0       	ldi	r23, 0x03	; 3
    1462:	ce 01       	movw	r24, r28
    1464:	82 58       	subi	r24, 0x82	; 130
						estado = ESTADOINICIAL;
    1466:	9f 4f       	sbci	r25, 0xFF	; 255
    1468:	6c d2       	rcall	.+1240   	; 0x1942 <strcmp>
					senhaRespostaNova = 0;
					clear_display();
					lcdWritePos(senhaResposta,0,0);
					atrasoms(1000);
					telaNova = 1;
					senhaRespostaNova=0;
    146a:	89 2b       	or	r24, r25
    146c:	31 f4       	brne	.+12     	; 0x147a <__EEPROM_REGION_LENGTH__+0x47a>
						telaNova = 1;
						escreveNota(carros[posCarro]);
					}else if(!strcmp(senhaResposta, "Saldo Invalido")){
						estado = ESTADOINICIAL;
						telaNova = 1;
					}else if(!strcmp(senhaResposta, "Senha Invalida")){
    146e:	82 e0       	ldi	r24, 0x02	; 2
    1470:	80 93 01 02 	sts	0x0201, r24	; 0x800201 <estado>
    1474:	21 2c       	mov	r2, r1
    1476:	31 2c       	mov	r3, r1
    1478:	14 c0       	rjmp	.+40     	; 0x14a2 <__EEPROM_REGION_LENGTH__+0x4a2>
    147a:	82 e0       	ldi	r24, 0x02	; 2
    147c:	80 93 01 02 	sts	0x0201, r24	; 0x800201 <estado>
						numeroSenhaPos = 0;
						estado = SENHA;
    1480:	21 2c       	mov	r2, r1
    1482:	0f c0       	rjmp	.+30     	; 0x14a2 <__EEPROM_REGION_LENGTH__+0x4a2>
    1484:	80 91 00 02 	lds	r24, 0x0200	; 0x800200 <__DATA_REGION_ORIGIN__>
						escreveNota(carros[posCarro]);
					}else if(!strcmp(senhaResposta, "Saldo Invalido")){
						estado = ESTADOINICIAL;
						telaNova = 1;
					}else if(!strcmp(senhaResposta, "Senha Invalida")){
						numeroSenhaPos = 0;
    1488:	88 23       	and	r24, r24
    148a:	31 f0       	breq	.+12     	; 0x1498 <__EEPROM_REGION_LENGTH__+0x498>
						estado = SENHA;
						telaNova = 1;
					
					}else{
						estado = SENHA;
    148c:	ca d8       	rcall	.-3692   	; 0x622 <_Z13clear_displayv>
    148e:	41 e0       	ldi	r20, 0x01	; 1
    1490:	64 e0       	ldi	r22, 0x04	; 4
					senhaRespostaNova = 0;
					clear_display();
					lcdWritePos(senhaResposta,0,0);
					atrasoms(1000);
					telaNova = 1;
					senhaRespostaNova=0;
    1492:	80 e2       	ldi	r24, 0x20	; 32
    1494:	93 e0       	ldi	r25, 0x03	; 3
						telaNova = 1;
					}
				}
				break;
			case BLOQUEADO:
				if(telaNova){
    1496:	13 d9       	rcall	.-3546   	; 0x6be <_Z11lcdWritePosPccc>
    1498:	10 92 01 02 	sts	0x0201, r1	; 0x800201 <estado>
    149c:	02 c0       	rjmp	.+4      	; 0x14a2 <__EEPROM_REGION_LENGTH__+0x4a2>
					clear_display();
    149e:	10 92 01 02 	sts	0x0201, r1	; 0x800201 <estado>
					lcdWritePos("Desligado", 4, 1);
    14a2:	20 91 2e 03 	lds	r18, 0x032E	; 0x80032e <__data_end>
    14a6:	30 91 2f 03 	lds	r19, 0x032F	; 0x80032f <__data_end+0x1>
    14aa:	40 91 30 03 	lds	r20, 0x0330	; 0x800330 <__data_end+0x2>
				}
			case SAIUENTRADA:
				estado = ESTADOINICIAL;
    14ae:	50 91 31 03 	lds	r21, 0x0331	; 0x800331 <__data_end+0x3>
				tempoTMP.setByDataHora(relogio);
				if(tempoTMP.diffSec(relogio)>=5){
					cancelaFecha('1');
					estado = ESTADOINICIAL;
				}		*/ 			
				break;
    14b2:	60 91 32 03 	lds	r22, 0x0332	; 0x800332 <__data_end+0x4>
			
			case SAIUSAIDA:
			
				estado = ESTADOINICIAL; 
    14b6:	ce 01       	movw	r24, r28
				}*/
				break;
			
		}//switch(estado)
		
		if(ultEO.diffSec(relogio)>40){
    14b8:	8b 54       	subi	r24, 0x4B	; 75
    14ba:	9f 4f       	sbci	r25, 0xFF	; 255
    14bc:	0e 94 3f 01 	call	0x27e	; 0x27e <_ZN8DataHora7diffSecES_>
    14c0:	89 97       	sbiw	r24, 0x29	; 41
    14c2:	a4 f0       	brlt	.+40     	; 0x14ec <__EEPROM_REGION_LENGTH__+0x4ec>
    14c4:	62 e0       	ldi	r22, 0x02	; 2
    14c6:	70 e0       	ldi	r23, 0x00	; 0
    14c8:	8a e2       	ldi	r24, 0x2A	; 42
    14ca:	93 e0       	ldi	r25, 0x03	; 3
    14cc:	c9 d0       	rcall	.+402    	; 0x1660 <_Z12escreveVetorPci>
    14ce:	20 91 2e 03 	lds	r18, 0x032E	; 0x80032e <__data_end>
    14d2:	30 91 2f 03 	lds	r19, 0x032F	; 0x80032f <__data_end+0x1>
    14d6:	40 91 30 03 	lds	r20, 0x0330	; 0x800330 <__data_end+0x2>
			escreveVetor("EO", 2);
    14da:	50 91 31 03 	lds	r21, 0x0331	; 0x800331 <__data_end+0x3>
    14de:	60 91 32 03 	lds	r22, 0x0332	; 0x800332 <__data_end+0x4>
    14e2:	ce 01       	movw	r24, r28
    14e4:	8b 54       	subi	r24, 0x4B	; 75
			ultEO.setByDataHora(relogio);
    14e6:	9f 4f       	sbci	r25, 0xFF	; 255
    14e8:	0e 94 f6 00 	call	0x1ec	; 0x1ec <_ZN8DataHora13setByDataHoraES_>
    14ec:	82 e3       	ldi	r24, 0x32	; 50
    14ee:	90 e0       	ldi	r25, 0x00	; 0
    14f0:	0e 94 bf 00 	call	0x17e	; 0x17e <_Z8atrasomsj>
    14f4:	7a ca       	rjmp	.-2828   	; 0x9ea <main+0xe0>
    14f6:	80 91 30 03 	lds	r24, 0x0330	; 0x800330 <__data_end+0x2>
    14fa:	86 30       	cpi	r24, 0x06	; 6
    14fc:	08 f0       	brcs	.+2      	; 0x1500 <__EEPROM_REGION_LENGTH__+0x500>
    14fe:	6e cc       	rjmp	.-1828   	; 0xddc <main+0x4d2>
    1500:	7c cc       	rjmp	.-1800   	; 0xdfa <main+0x4f0>

00001502 <_GLOBAL__sub_I_desbloqueado>:
    1502:	cf 92       	push	r12
		}
		atrasoms(50);
    1504:	df 92       	push	r13
    1506:	ef 92       	push	r14
    1508:	ff 92       	push	r15
    150a:	0f 93       	push	r16
	
	serialSetup();
	lcd_config();
	timer1_config();

    while (1) 
    150c:	cf 93       	push	r28
		if(!bloqueadoPorHorario && relogio.hora<6){
			bloqueadoPorHorario = 1;
			if(desbloqueado || estado != BLOQUEADO)
				bloqueia();
		}
		if(bloqueadoPorHorario && relogio.hora>=6){
    150e:	df 93       	push	r29
    1510:	00 d0       	rcall	.+0      	; 0x1512 <_GLOBAL__sub_I_desbloqueado+0x10>
    1512:	1f 92       	push	r1
    1514:	1f 92       	push	r1
    1516:	cd b7       	in	r28, 0x3d	; 61
    1518:	de b7       	in	r29, 0x3e	; 62

escreveVetor(carro.placa,8);
itoa(carro.valorpago,pagamento,10);
escreveVetor(pagamento,4);
escreveVetor("aaaa",4);
};
    151a:	0f 2e       	mov	r0, r31
    151c:	f3 e3       	ldi	r31, 0x33	; 51
    151e:	ef 2e       	mov	r14, r31
    1520:	f3 e0       	ldi	r31, 0x03	; 3
    1522:	ff 2e       	mov	r15, r31
    1524:	f0 2d       	mov	r31, r0
    1526:	0f 2e       	mov	r0, r31
    1528:	fb ef       	ldi	r31, 0xFB	; 251
    152a:	cf 2e       	mov	r12, r31
    152c:	fd e0       	ldi	r31, 0x0D	; 13
    152e:	df 2e       	mov	r13, r31
    1530:	f0 2d       	mov	r31, r0
//DataHora relogio;

char telaNova=1;


Veiculo carros[120]; //máximo 120 carros no estacionamento
    1532:	00 e0       	ldi	r16, 0x00	; 0
    1534:	20 e0       	ldi	r18, 0x00	; 0
    1536:	41 e0       	ldi	r20, 0x01	; 1
    1538:	61 e0       	ldi	r22, 0x01	; 1
    153a:	ce 01       	movw	r24, r28
    153c:	01 96       	adiw	r24, 0x01	; 1
    153e:	0e 94 dd 00 	call	0x1ba	; 0x1ba <_ZN8DataHoraC1Ecccc>
    1542:	29 81       	ldd	r18, Y+1	; 0x01
    1544:	3a 81       	ldd	r19, Y+2	; 0x02
    1546:	4b 81       	ldd	r20, Y+3	; 0x03
    1548:	5c 81       	ldd	r21, Y+4	; 0x04
    154a:	6d 81       	ldd	r22, Y+5	; 0x05
    154c:	c7 01       	movw	r24, r14
    154e:	0e 94 eb 01 	call	0x3d6	; 0x3d6 <_ZN7VeiculoC1E8DataHora>
    1552:	87 e1       	ldi	r24, 0x17	; 23
    1554:	e8 0e       	add	r14, r24
    1556:	f1 1c       	adc	r15, r1
    1558:	ec 14       	cp	r14, r12
    155a:	fd 04       	cpc	r15, r13
    155c:	51 f7       	brne	.-44     	; 0x1532 <_GLOBAL__sub_I_desbloqueado+0x30>

escreveVetor(carro.placa,8);
itoa(carro.valorpago,pagamento,10);
escreveVetor(pagamento,4);
escreveVetor("aaaa",4);
};
    155e:	0f 90       	pop	r0
    1560:	0f 90       	pop	r0
    1562:	0f 90       	pop	r0
    1564:	0f 90       	pop	r0
    1566:	0f 90       	pop	r0
    1568:	df 91       	pop	r29
    156a:	cf 91       	pop	r28
    156c:	0f 91       	pop	r16
    156e:	ff 90       	pop	r15
    1570:	ef 90       	pop	r14
    1572:	df 90       	pop	r13
    1574:	cf 90       	pop	r12
    1576:	08 95       	ret

00001578 <_Z11serialSetupv>:
char serialRXBuffer[RX_BUFFER_SIZE];
char serialRXPosW = 0;
char serialRXPosR = 0;

void serialSetup(){
	UBRR0L = 51; //registrador de 16 bits divisor clock
    1578:	83 e3       	ldi	r24, 0x33	; 51
    157a:	80 93 c4 00 	sts	0x00C4, r24	; 0x8000c4 <__TEXT_REGION_LENGTH__+0x7c00c4>
	UBRR0H = 0;
    157e:	10 92 c5 00 	sts	0x00C5, r1	; 0x8000c5 <__TEXT_REGION_LENGTH__+0x7c00c5>
	
	UCSR0A = 0;
    1582:	10 92 c0 00 	sts	0x00C0, r1	; 0x8000c0 <__TEXT_REGION_LENGTH__+0x7c00c0>
	UCSR0B = (1<<RXEN0) | (1<<TXEN0) | /*(1<<TXCIE0)*/ (1<<UDRIE0) | (1<<RXCIE0); //ativa rx e tx e ISR de tx e rx
    1586:	88 eb       	ldi	r24, 0xB8	; 184
    1588:	80 93 c1 00 	sts	0x00C1, r24	; 0x8000c1 <__TEXT_REGION_LENGTH__+0x7c00c1>
	sei();
    158c:	78 94       	sei
	UCSR0C = (1<<UCSZ01) | (1<<UCSZ00); //Async, 0 parity, 1 stop bit, 8 bits, rising edge clock
    158e:	86 e0       	ldi	r24, 0x06	; 6
    1590:	80 93 c2 00 	sts	0x00C2, r24	; 0x8000c2 <__TEXT_REGION_LENGTH__+0x7c00c2>
    1594:	08 95       	ret

00001596 <_Z8novoDadov>:
}
char novoDado(){
	char tam = serialRXPosW-serialRXPosR;
	if(tam<0)
		tam += RX_BUFFER_SIZE;
	return tam;
    1596:	80 91 fd 0d 	lds	r24, 0x0DFD	; 0x800dfd <serialRXPosW>
    159a:	90 91 fc 0d 	lds	r25, 0x0DFC	; 0x800dfc <serialRXPosR>
}
    159e:	89 1b       	sub	r24, r25
    15a0:	08 95       	ret

000015a2 <_Z2lev>:

char le(){
	char c;
	if(serialRXPosR != serialRXPosW){
    15a2:	90 91 fc 0d 	lds	r25, 0x0DFC	; 0x800dfc <serialRXPosR>
    15a6:	80 91 fd 0d 	lds	r24, 0x0DFD	; 0x800dfd <serialRXPosW>
    15aa:	98 17       	cp	r25, r24
    15ac:	71 f0       	breq	.+28     	; 0x15ca <_Z2lev+0x28>
		c = serialRXBuffer[serialRXPosR];
    15ae:	e9 2f       	mov	r30, r25
    15b0:	f0 e0       	ldi	r31, 0x00	; 0
    15b2:	e2 50       	subi	r30, 0x02	; 2
    15b4:	f2 4f       	sbci	r31, 0xF2	; 242
    15b6:	80 81       	ld	r24, Z
		serialRXPosR++;
    15b8:	9f 5f       	subi	r25, 0xFF	; 255
		if(serialRXPosR >= RX_BUFFER_SIZE)
    15ba:	9f 3f       	cpi	r25, 0xFF	; 255
    15bc:	19 f0       	breq	.+6      	; 0x15c4 <_Z2lev+0x22>

char le(){
	char c;
	if(serialRXPosR != serialRXPosW){
		c = serialRXBuffer[serialRXPosR];
		serialRXPosR++;
    15be:	90 93 fc 0d 	sts	0x0DFC, r25	; 0x800dfc <serialRXPosR>
    15c2:	08 95       	ret
		if(serialRXPosR >= RX_BUFFER_SIZE)
			serialRXPosR = 0;
    15c4:	10 92 fc 0d 	sts	0x0DFC, r1	; 0x800dfc <serialRXPosR>
    15c8:	08 95       	ret
	}else{
		atrasoms(1);
    15ca:	81 e0       	ldi	r24, 0x01	; 1
    15cc:	90 e0       	ldi	r25, 0x00	; 0
    15ce:	0e 94 bf 00 	call	0x17e	; 0x17e <_Z8atrasomsj>
		if(serialRXPosR != serialRXPosW){
    15d2:	90 91 fc 0d 	lds	r25, 0x0DFC	; 0x800dfc <serialRXPosR>
    15d6:	80 91 fd 0d 	lds	r24, 0x0DFD	; 0x800dfd <serialRXPosW>
    15da:	98 17       	cp	r25, r24
    15dc:	71 f0       	breq	.+28     	; 0x15fa <_Z2lev+0x58>
			c = serialRXBuffer[serialRXPosR];
    15de:	e9 2f       	mov	r30, r25
    15e0:	f0 e0       	ldi	r31, 0x00	; 0
    15e2:	e2 50       	subi	r30, 0x02	; 2
    15e4:	f2 4f       	sbci	r31, 0xF2	; 242
    15e6:	80 81       	ld	r24, Z
			serialRXPosR++;
    15e8:	9f 5f       	subi	r25, 0xFF	; 255
			if(serialRXPosR >= RX_BUFFER_SIZE)
    15ea:	9f 3f       	cpi	r25, 0xFF	; 255
    15ec:	19 f0       	breq	.+6      	; 0x15f4 <_Z2lev+0x52>
			serialRXPosR = 0;
	}else{
		atrasoms(1);
		if(serialRXPosR != serialRXPosW){
			c = serialRXBuffer[serialRXPosR];
			serialRXPosR++;
    15ee:	90 93 fc 0d 	sts	0x0DFC, r25	; 0x800dfc <serialRXPosR>
    15f2:	08 95       	ret
			if(serialRXPosR >= RX_BUFFER_SIZE)
			serialRXPosR = 0;
    15f4:	10 92 fc 0d 	sts	0x0DFC, r1	; 0x800dfc <serialRXPosR>
    15f8:	08 95       	ret
		}else{
			c = '\0';
    15fa:	80 e0       	ldi	r24, 0x00	; 0
		}
	}
	return c;
}
    15fc:	08 95       	ret

000015fe <_Z7leVetorPci>:

/*char le(){
	while(!UCSR0A & (1<<RXC0));
	return UDR0;
}*/
void leVetor(char vetor[], int n){
    15fe:	0f 93       	push	r16
    1600:	1f 93       	push	r17
    1602:	cf 93       	push	r28
    1604:	df 93       	push	r29
	for(int i=0; i<n; i++){
    1606:	16 16       	cp	r1, r22
    1608:	17 06       	cpc	r1, r23
    160a:	4c f4       	brge	.+18     	; 0x161e <_Z7leVetorPci+0x20>
    160c:	8c 01       	movw	r16, r24
    160e:	ec 01       	movw	r28, r24
    1610:	06 0f       	add	r16, r22
    1612:	17 1f       	adc	r17, r23
		vetor[i] = le();
    1614:	c6 df       	rcall	.-116    	; 0x15a2 <_Z2lev>
    1616:	89 93       	st	Y+, r24
/*char le(){
	while(!UCSR0A & (1<<RXC0));
	return UDR0;
}*/
void leVetor(char vetor[], int n){
	for(int i=0; i<n; i++){
    1618:	c0 17       	cp	r28, r16
    161a:	d1 07       	cpc	r29, r17
    161c:	d9 f7       	brne	.-10     	; 0x1614 <_Z7leVetorPci+0x16>
		vetor[i] = le();
	}
}
    161e:	df 91       	pop	r29
    1620:	cf 91       	pop	r28
    1622:	1f 91       	pop	r17
    1624:	0f 91       	pop	r16
    1626:	08 95       	ret

00001628 <_Z7escrevec>:
		}
	}
	return c;
}
void escreve(char c){
	serialTXBuffer[serialTXPosW] = c;
    1628:	90 91 fe 0e 	lds	r25, 0x0EFE	; 0x800efe <serialTXPosW>
    162c:	e9 2f       	mov	r30, r25
    162e:	f0 e0       	ldi	r31, 0x00	; 0
    1630:	e1 50       	subi	r30, 0x01	; 1
    1632:	f1 4f       	sbci	r31, 0xF1	; 241
    1634:	80 83       	st	Z, r24
	serialTXPosW++;
    1636:	9f 5f       	subi	r25, 0xFF	; 255
	if(serialTXPosW >= TX_BUFFER_SIZE)
    1638:	9f 3f       	cpi	r25, 0xFF	; 255
    163a:	19 f0       	breq	.+6      	; 0x1642 <_Z7escrevec+0x1a>
	}
	return c;
}
void escreve(char c){
	serialTXBuffer[serialTXPosW] = c;
	serialTXPosW++;
    163c:	90 93 fe 0e 	sts	0x0EFE, r25	; 0x800efe <serialTXPosW>
    1640:	02 c0       	rjmp	.+4      	; 0x1646 <_Z7escrevec+0x1e>
	if(serialTXPosW >= TX_BUFFER_SIZE)
		serialTXPosW = 0;
    1642:	10 92 fe 0e 	sts	0x0EFE, r1	; 0x800efe <serialTXPosW>
		
	//UDR0 = '\0';
	if( UCSR0A & (1<<UDRE0) ){
    1646:	80 91 c0 00 	lds	r24, 0x00C0	; 0x8000c0 <__TEXT_REGION_LENGTH__+0x7c00c0>
    164a:	85 ff       	sbrs	r24, 5
    164c:	08 c0       	rjmp	.+16     	; 0x165e <_Z7escrevec+0x36>
		UCSR0A &= ~(1<<UDRE0);
    164e:	e0 ec       	ldi	r30, 0xC0	; 192
    1650:	f0 e0       	ldi	r31, 0x00	; 0
    1652:	80 81       	ld	r24, Z
    1654:	8f 7d       	andi	r24, 0xDF	; 223
    1656:	80 83       	st	Z, r24
		UCSR0A |= (1<<UDRE0);
    1658:	80 81       	ld	r24, Z
    165a:	80 62       	ori	r24, 0x20	; 32
    165c:	80 83       	st	Z, r24
    165e:	08 95       	ret

00001660 <_Z12escreveVetorPci>:
}
/*void escreve(char dado){
	while(!UCSR0A & (1<<UDRE0));
	UDR0 = dado;
}*/
void escreveVetor(char dados[], int n){
    1660:	0f 93       	push	r16
    1662:	1f 93       	push	r17
    1664:	cf 93       	push	r28
    1666:	df 93       	push	r29
	for(int i=0; i<n; i++){
    1668:	16 16       	cp	r1, r22
    166a:	17 06       	cpc	r1, r23
    166c:	4c f4       	brge	.+18     	; 0x1680 <_Z12escreveVetorPci+0x20>
    166e:	8c 01       	movw	r16, r24
    1670:	ec 01       	movw	r28, r24
    1672:	06 0f       	add	r16, r22
    1674:	17 1f       	adc	r17, r23
		escreve(dados[i]);
    1676:	89 91       	ld	r24, Y+
    1678:	d7 df       	rcall	.-82     	; 0x1628 <_Z7escrevec>
/*void escreve(char dado){
	while(!UCSR0A & (1<<UDRE0));
	UDR0 = dado;
}*/
void escreveVetor(char dados[], int n){
	for(int i=0; i<n; i++){
    167a:	c0 17       	cp	r28, r16
    167c:	d1 07       	cpc	r29, r17
    167e:	d9 f7       	brne	.-10     	; 0x1676 <_Z12escreveVetorPci+0x16>
		escreve(dados[i]);
	}
	//UDR0 = '\0';
}
    1680:	df 91       	pop	r29
    1682:	cf 91       	pop	r28
    1684:	1f 91       	pop	r17
    1686:	0f 91       	pop	r16
    1688:	08 95       	ret

0000168a <__vector_26>:
		UCSR0A &= ~(1<<UDRE0);
		UCSR0A |= (1<<UDRE0);
	}
}

ISR(USART0_UDRE_vect){
    168a:	1f 92       	push	r1
    168c:	0f 92       	push	r0
    168e:	0f b6       	in	r0, 0x3f	; 63
    1690:	0f 92       	push	r0
    1692:	11 24       	eor	r1, r1
    1694:	0b b6       	in	r0, 0x3b	; 59
    1696:	0f 92       	push	r0
    1698:	8f 93       	push	r24
    169a:	ef 93       	push	r30
    169c:	ff 93       	push	r31
	if(serialTXPosR != serialTXPosW){
    169e:	e0 91 fd 0e 	lds	r30, 0x0EFD	; 0x800efd <serialTXPosR>
    16a2:	80 91 fe 0e 	lds	r24, 0x0EFE	; 0x800efe <serialTXPosW>
    16a6:	e8 17       	cp	r30, r24
    16a8:	81 f0       	breq	.+32     	; 0x16ca <__vector_26+0x40>
		UDR0 = serialTXBuffer[serialTXPosR];
    16aa:	f0 e0       	ldi	r31, 0x00	; 0
    16ac:	e1 50       	subi	r30, 0x01	; 1
    16ae:	f1 4f       	sbci	r31, 0xF1	; 241
    16b0:	80 81       	ld	r24, Z
    16b2:	80 93 c6 00 	sts	0x00C6, r24	; 0x8000c6 <__TEXT_REGION_LENGTH__+0x7c00c6>
		serialTXPosR++;
    16b6:	80 91 fd 0e 	lds	r24, 0x0EFD	; 0x800efd <serialTXPosR>
    16ba:	8f 5f       	subi	r24, 0xFF	; 255
		if(serialTXPosR >= TX_BUFFER_SIZE){
    16bc:	8f 3f       	cpi	r24, 0xFF	; 255
    16be:	19 f0       	breq	.+6      	; 0x16c6 <__vector_26+0x3c>
}

ISR(USART0_UDRE_vect){
	if(serialTXPosR != serialTXPosW){
		UDR0 = serialTXBuffer[serialTXPosR];
		serialTXPosR++;
    16c0:	80 93 fd 0e 	sts	0x0EFD, r24	; 0x800efd <serialTXPosR>
    16c4:	02 c0       	rjmp	.+4      	; 0x16ca <__vector_26+0x40>
		if(serialTXPosR >= TX_BUFFER_SIZE){
			serialTXPosR = 0;
    16c6:	10 92 fd 0e 	sts	0x0EFD, r1	; 0x800efd <serialTXPosR>
		}
	}
}
    16ca:	ff 91       	pop	r31
    16cc:	ef 91       	pop	r30
    16ce:	8f 91       	pop	r24
    16d0:	0f 90       	pop	r0
    16d2:	0b be       	out	0x3b, r0	; 59
    16d4:	0f 90       	pop	r0
    16d6:	0f be       	out	0x3f, r0	; 63
    16d8:	0f 90       	pop	r0
    16da:	1f 90       	pop	r1
    16dc:	18 95       	reti

000016de <__vector_25>:

ISR(USART0_RX_vect){
    16de:	1f 92       	push	r1
    16e0:	0f 92       	push	r0
    16e2:	0f b6       	in	r0, 0x3f	; 63
    16e4:	0f 92       	push	r0
    16e6:	11 24       	eor	r1, r1
    16e8:	0b b6       	in	r0, 0x3b	; 59
    16ea:	0f 92       	push	r0
    16ec:	8f 93       	push	r24
    16ee:	9f 93       	push	r25
    16f0:	ef 93       	push	r30
    16f2:	ff 93       	push	r31
	serialRXBuffer[serialRXPosW] = UDR0;
    16f4:	80 91 fd 0d 	lds	r24, 0x0DFD	; 0x800dfd <serialRXPosW>
    16f8:	90 91 c6 00 	lds	r25, 0x00C6	; 0x8000c6 <__TEXT_REGION_LENGTH__+0x7c00c6>
    16fc:	e8 2f       	mov	r30, r24
    16fe:	f0 e0       	ldi	r31, 0x00	; 0
    1700:	e2 50       	subi	r30, 0x02	; 2
    1702:	f2 4f       	sbci	r31, 0xF2	; 242
    1704:	90 83       	st	Z, r25
	serialRXPosW++;
    1706:	8f 5f       	subi	r24, 0xFF	; 255
	if(serialRXPosW >= RX_BUFFER_SIZE){
    1708:	8f 3f       	cpi	r24, 0xFF	; 255
    170a:	19 f0       	breq	.+6      	; 0x1712 <__vector_25+0x34>
	}
}

ISR(USART0_RX_vect){
	serialRXBuffer[serialRXPosW] = UDR0;
	serialRXPosW++;
    170c:	80 93 fd 0d 	sts	0x0DFD, r24	; 0x800dfd <serialRXPosW>
    1710:	02 c0       	rjmp	.+4      	; 0x1716 <__vector_25+0x38>
	if(serialRXPosW >= RX_BUFFER_SIZE){
		serialRXPosW = 0;
    1712:	10 92 fd 0d 	sts	0x0DFD, r1	; 0x800dfd <serialRXPosW>
	}
}
    1716:	ff 91       	pop	r31
    1718:	ef 91       	pop	r30
    171a:	9f 91       	pop	r25
    171c:	8f 91       	pop	r24
    171e:	0f 90       	pop	r0
    1720:	0b be       	out	0x3b, r0	; 59
    1722:	0f 90       	pop	r0
    1724:	0f be       	out	0x3f, r0	; 63
    1726:	0f 90       	pop	r0
    1728:	1f 90       	pop	r1
    172a:	18 95       	reti

0000172c <_Z8le_linhav>:

char le_linha(){ // retorna linha precionada, -1 se todas desativadas
	
	
	char valor_atual=-1;
	if(!(LINHA0_MASK & LINHA_PIN)) //verifica valor atual (0->BOTAO ATIVO)
    172c:	e0 e0       	ldi	r30, 0x00	; 0
    172e:	f1 e0       	ldi	r31, 0x01	; 1
    1730:	80 81       	ld	r24, Z
		valor_atual=0;
	
	if(!(LINHA1_MASK & LINHA_PIN))
    1732:	90 81       	ld	r25, Z
    1734:	94 ff       	sbrs	r25, 4
    1736:	05 c0       	rjmp	.+10     	; 0x1742 <_Z8le_linhav+0x16>

char le_linha(){ // retorna linha precionada, -1 se todas desativadas
	
	
	char valor_atual=-1;
	if(!(LINHA0_MASK & LINHA_PIN)) //verifica valor atual (0->BOTAO ATIVO)
    1738:	83 fb       	bst	r24, 3
    173a:	88 27       	eor	r24, r24
    173c:	80 f9       	bld	r24, 0
    173e:	81 95       	neg	r24
    1740:	01 c0       	rjmp	.+2      	; 0x1744 <_Z8le_linhav+0x18>
		valor_atual=0;
	
	if(!(LINHA1_MASK & LINHA_PIN))
		valor_atual=1;
    1742:	81 e0       	ldi	r24, 0x01	; 1
	
	if(!(LINHA2_MASK & LINHA_PIN))
    1744:	90 91 00 01 	lds	r25, 0x0100	; 0x800100 <__TEXT_REGION_LENGTH__+0x7c0100>
    1748:	95 ff       	sbrs	r25, 5
	valor_atual=2;
    174a:	82 e0       	ldi	r24, 0x02	; 2
	
	if(!(LINHA3_MASK & LINHA_PIN))
    174c:	90 91 00 01 	lds	r25, 0x0100	; 0x800100 <__TEXT_REGION_LENGTH__+0x7c0100>
    1750:	96 ff       	sbrs	r25, 6
	valor_atual=3;
    1752:	83 e0       	ldi	r24, 0x03	; 3
	return valor_atual;
	
	
	
	
}
    1754:	08 95       	ret

00001756 <_Z11solta_teclac>:
void solta_tecla(char valor_anterior){
    1756:	ff 92       	push	r15
    1758:	0f 93       	push	r16
    175a:	1f 93       	push	r17
    175c:	cf 93       	push	r28
    175e:	df 93       	push	r29
    1760:	08 2f       	mov	r16, r24
	char contador_2=0;
	char contador=0;
    1762:	c0 e0       	ldi	r28, 0x00	; 0
	
	
	
}
void solta_tecla(char valor_anterior){
	char contador_2=0;
    1764:	10 e0       	ldi	r17, 0x00	; 0
	while(flag){
		if(le_linha()!=valor_anterior)
			contador++;
		else
			contador=0;	
		if((contador>=(char)10)|(contador_2>=(char)100))
    1766:	d1 e0       	ldi	r29, 0x01	; 1
    1768:	f1 2c       	mov	r15, r1
void solta_tecla(char valor_anterior){
	char contador_2=0;
	char contador=0;
	char flag=1;
	while(flag){
		if(le_linha()!=valor_anterior)
    176a:	e0 df       	rcall	.-64     	; 0x172c <_Z8le_linhav>
    176c:	80 17       	cp	r24, r16
    176e:	11 f0       	breq	.+4      	; 0x1774 <_Z11solta_teclac+0x1e>
			contador++;
    1770:	cf 5f       	subi	r28, 0xFF	; 255
    1772:	01 c0       	rjmp	.+2      	; 0x1776 <_Z11solta_teclac+0x20>
		else
			contador=0;	
    1774:	c0 e0       	ldi	r28, 0x00	; 0
		if((contador>=(char)10)|(contador_2>=(char)100))
    1776:	8d 2f       	mov	r24, r29
    1778:	ca 30       	cpi	r28, 0x0A	; 10
    177a:	08 f4       	brcc	.+2      	; 0x177e <_Z11solta_teclac+0x28>
    177c:	8f 2d       	mov	r24, r15
    177e:	81 11       	cpse	r24, r1
    1780:	0c c0       	rjmp	.+24     	; 0x179a <_Z11solta_teclac+0x44>
    1782:	8d 2f       	mov	r24, r29
    1784:	14 36       	cpi	r17, 0x64	; 100
    1786:	08 f4       	brcc	.+2      	; 0x178a <_Z11solta_teclac+0x34>
    1788:	8f 2d       	mov	r24, r15
    178a:	81 11       	cpse	r24, r1
    178c:	06 c0       	rjmp	.+12     	; 0x179a <_Z11solta_teclac+0x44>
			flag=0;
		
		contador_2++;
    178e:	1f 5f       	subi	r17, 0xFF	; 255
		atrasoms(10);
    1790:	8a e0       	ldi	r24, 0x0A	; 10
    1792:	90 e0       	ldi	r25, 0x00	; 0
    1794:	0e 94 bf 00 	call	0x17e	; 0x17e <_Z8atrasomsj>
    1798:	e8 cf       	rjmp	.-48     	; 0x176a <_Z11solta_teclac+0x14>
    179a:	8a e0       	ldi	r24, 0x0A	; 10
    179c:	90 e0       	ldi	r25, 0x00	; 0
    179e:	0e 94 bf 00 	call	0x17e	; 0x17e <_Z8atrasomsj>
	}
}
    17a2:	df 91       	pop	r29
    17a4:	cf 91       	pop	r28
    17a6:	1f 91       	pop	r17
    17a8:	0f 91       	pop	r16
    17aa:	ff 90       	pop	r15
    17ac:	08 95       	ret

000017ae <_Z14debounce_linhav>:
char debounce_linha(void){ //retorna linha pós debounce
    17ae:	cf 93       	push	r28
    17b0:	df 93       	push	r29
	char contador=0;
	char valor_atual;
	char valor_anterior;
	
	valor_anterior=le_linha();
    17b2:	bc df       	rcall	.-136    	; 0x172c <_Z8le_linhav>
    17b4:	d8 2f       	mov	r29, r24

	if(valor_anterior!=(char)-1){
    17b6:	8f 3f       	cpi	r24, 0xFF	; 255
    17b8:	79 f0       	breq	.+30     	; 0x17d8 <_Z14debounce_linhav+0x2a>
		do{
			valor_atual=le_linha();
    17ba:	ca e0       	ldi	r28, 0x0A	; 10
    17bc:	b7 df       	rcall	.-146    	; 0x172c <_Z8le_linhav>
			if(valor_atual!=valor_anterior)
    17be:	d8 13       	cpse	r29, r24
    17c0:	0d c0       	rjmp	.+26     	; 0x17dc <_Z14debounce_linhav+0x2e>
    17c2:	c1 50       	subi	r28, 0x01	; 1
			if(valor_atual==valor_anterior)
				contador++;								
			
			if(contador>=(char)10){
				
				solta_tecla(valor_atual); // fica preso na funçao até trocar de tecla ou solta-la				
    17c4:	21 f4       	brne	.+8      	; 0x17ce <_Z14debounce_linhav+0x20>
    17c6:	8d 2f       	mov	r24, r29
    17c8:	c6 df       	rcall	.-116    	; 0x1756 <_Z11solta_teclac>
				return valor_atual;
    17ca:	8d 2f       	mov	r24, r29
    17cc:	08 c0       	rjmp	.+16     	; 0x17de <_Z14debounce_linhav+0x30>
			}
			atrasoms(10);
    17ce:	8a e0       	ldi	r24, 0x0A	; 10
    17d0:	90 e0       	ldi	r25, 0x00	; 0
    17d2:	0e 94 bf 00 	call	0x17e	; 0x17e <_Z8atrasomsj>
	char valor_anterior;
	
	valor_anterior=le_linha();

	if(valor_anterior!=(char)-1){
		do{
    17d6:	f2 cf       	rjmp	.-28     	; 0x17bc <_Z14debounce_linhav+0xe>
			
			
		}while(1);
	}
	
	return -1;
    17d8:	8f ef       	ldi	r24, 0xFF	; 255
    17da:	01 c0       	rjmp	.+2      	; 0x17de <_Z14debounce_linhav+0x30>

	if(valor_anterior!=(char)-1){
		do{
			valor_atual=le_linha();
			if(valor_atual!=valor_anterior)
				return -1;
    17dc:	8f ef       	ldi	r24, 0xFF	; 255
		}while(1);
	}
	
	return -1;
	
}
    17de:	df 91       	pop	r29
    17e0:	cf 91       	pop	r28
    17e2:	08 95       	ret

000017e4 <_Z16converte_leituracc>:
char converte_leitura(char linha, char coluna){
	//converte linha coluna para o equivalente do teclado
	
	char leitura;
	switch(linha){
    17e4:	81 30       	cpi	r24, 0x01	; 1
    17e6:	b1 f0       	breq	.+44     	; 0x1814 <_Z16converte_leituracc+0x30>
    17e8:	28 f0       	brcs	.+10     	; 0x17f4 <_Z16converte_leituracc+0x10>
    17ea:	82 30       	cpi	r24, 0x02	; 2
    17ec:	19 f1       	breq	.+70     	; 0x1834 <_Z16converte_leituracc+0x50>
    17ee:	83 30       	cpi	r24, 0x03	; 3
    17f0:	89 f1       	breq	.+98     	; 0x1854 <_Z16converte_leituracc+0x70>
    17f2:	3f c0       	rjmp	.+126    	; 0x1872 <_Z16converte_leituracc+0x8e>
		
		case 0:
		switch(coluna){
    17f4:	61 30       	cpi	r22, 0x01	; 1
    17f6:	41 f0       	breq	.+16     	; 0x1808 <_Z16converte_leituracc+0x24>
    17f8:	28 f0       	brcs	.+10     	; 0x1804 <_Z16converte_leituracc+0x20>
    17fa:	62 30       	cpi	r22, 0x02	; 2
    17fc:	39 f0       	breq	.+14     	; 0x180c <_Z16converte_leituracc+0x28>
    17fe:	63 30       	cpi	r22, 0x03	; 3
    1800:	39 f0       	breq	.+14     	; 0x1810 <_Z16converte_leituracc+0x2c>
    1802:	37 c0       	rjmp	.+110    	; 0x1872 <_Z16converte_leituracc+0x8e>
			case 0:
			leitura='1';
    1804:	91 e3       	ldi	r25, 0x31	; 49
    1806:	35 c0       	rjmp	.+106    	; 0x1872 <_Z16converte_leituracc+0x8e>
			break;
			
			case 1:
			leitura='2';
    1808:	92 e3       	ldi	r25, 0x32	; 50
			break;
    180a:	33 c0       	rjmp	.+102    	; 0x1872 <_Z16converte_leituracc+0x8e>
			
			case 2:
			leitura='3';
    180c:	93 e3       	ldi	r25, 0x33	; 51
			
			break;
    180e:	31 c0       	rjmp	.+98     	; 0x1872 <_Z16converte_leituracc+0x8e>
			case 3:
			leitura='A';
    1810:	91 e4       	ldi	r25, 0x41	; 65
			break;
    1812:	2f c0       	rjmp	.+94     	; 0x1872 <_Z16converte_leituracc+0x8e>
		}
		
		break;
		case 1:
		switch(coluna){
    1814:	61 30       	cpi	r22, 0x01	; 1
    1816:	41 f0       	breq	.+16     	; 0x1828 <_Z16converte_leituracc+0x44>
    1818:	28 f0       	brcs	.+10     	; 0x1824 <_Z16converte_leituracc+0x40>
    181a:	62 30       	cpi	r22, 0x02	; 2
    181c:	39 f0       	breq	.+14     	; 0x182c <_Z16converte_leituracc+0x48>
    181e:	63 30       	cpi	r22, 0x03	; 3
    1820:	39 f0       	breq	.+14     	; 0x1830 <_Z16converte_leituracc+0x4c>
    1822:	27 c0       	rjmp	.+78     	; 0x1872 <_Z16converte_leituracc+0x8e>
			case 0:
			leitura='4';
    1824:	94 e3       	ldi	r25, 0x34	; 52
    1826:	25 c0       	rjmp	.+74     	; 0x1872 <_Z16converte_leituracc+0x8e>
			break;
			case 1:
			leitura='5';
    1828:	95 e3       	ldi	r25, 0x35	; 53
			break;
    182a:	23 c0       	rjmp	.+70     	; 0x1872 <_Z16converte_leituracc+0x8e>
			case 2:
			leitura='6';
    182c:	96 e3       	ldi	r25, 0x36	; 54
			break;
    182e:	21 c0       	rjmp	.+66     	; 0x1872 <_Z16converte_leituracc+0x8e>
			case 3:
			leitura='B';
    1830:	92 e4       	ldi	r25, 0x42	; 66
			break;
    1832:	1f c0       	rjmp	.+62     	; 0x1872 <_Z16converte_leituracc+0x8e>
		}
		
		break;
		case 2:
		switch(coluna){
    1834:	61 30       	cpi	r22, 0x01	; 1
    1836:	41 f0       	breq	.+16     	; 0x1848 <_Z16converte_leituracc+0x64>
    1838:	28 f0       	brcs	.+10     	; 0x1844 <_Z16converte_leituracc+0x60>
    183a:	62 30       	cpi	r22, 0x02	; 2
    183c:	39 f0       	breq	.+14     	; 0x184c <_Z16converte_leituracc+0x68>
    183e:	63 30       	cpi	r22, 0x03	; 3
    1840:	39 f0       	breq	.+14     	; 0x1850 <_Z16converte_leituracc+0x6c>
    1842:	17 c0       	rjmp	.+46     	; 0x1872 <_Z16converte_leituracc+0x8e>
			case 0:
			leitura='7';
    1844:	97 e3       	ldi	r25, 0x37	; 55
    1846:	15 c0       	rjmp	.+42     	; 0x1872 <_Z16converte_leituracc+0x8e>
			break;
			case 1:
			leitura='8';
    1848:	98 e3       	ldi	r25, 0x38	; 56
			break;
    184a:	13 c0       	rjmp	.+38     	; 0x1872 <_Z16converte_leituracc+0x8e>
			case 2:
			leitura='9';
    184c:	99 e3       	ldi	r25, 0x39	; 57
			break;
    184e:	11 c0       	rjmp	.+34     	; 0x1872 <_Z16converte_leituracc+0x8e>
			case 3:
			leitura='C';
    1850:	93 e4       	ldi	r25, 0x43	; 67
			break;
    1852:	0f c0       	rjmp	.+30     	; 0x1872 <_Z16converte_leituracc+0x8e>
		}
		break;
		case 3:
		switch(coluna){
    1854:	61 30       	cpi	r22, 0x01	; 1
    1856:	41 f0       	breq	.+16     	; 0x1868 <_Z16converte_leituracc+0x84>
    1858:	28 f0       	brcs	.+10     	; 0x1864 <_Z16converte_leituracc+0x80>
    185a:	62 30       	cpi	r22, 0x02	; 2
    185c:	39 f0       	breq	.+14     	; 0x186c <_Z16converte_leituracc+0x88>
    185e:	63 30       	cpi	r22, 0x03	; 3
    1860:	39 f0       	breq	.+14     	; 0x1870 <_Z16converte_leituracc+0x8c>
    1862:	07 c0       	rjmp	.+14     	; 0x1872 <_Z16converte_leituracc+0x8e>
			case 0:
			leitura='*';
    1864:	9a e2       	ldi	r25, 0x2A	; 42
    1866:	05 c0       	rjmp	.+10     	; 0x1872 <_Z16converte_leituracc+0x8e>
			break;
			case 1:
			leitura='0';
    1868:	90 e3       	ldi	r25, 0x30	; 48
			break;
    186a:	03 c0       	rjmp	.+6      	; 0x1872 <_Z16converte_leituracc+0x8e>
			case 2:
			leitura='#';
    186c:	93 e2       	ldi	r25, 0x23	; 35
			break;
    186e:	01 c0       	rjmp	.+2      	; 0x1872 <_Z16converte_leituracc+0x8e>
			case 3:
			leitura='D';
    1870:	94 e4       	ldi	r25, 0x44	; 68
		
		
		
	}
	return leitura;
}
    1872:	89 2f       	mov	r24, r25
    1874:	08 95       	ret

00001876 <_Z10le_tecladov>:
	
	char leitura;
	char coluna;
	char linha;
	char i;
	LINHA_DDR  &=~((LINHA0_MASK)|(LINHA1_MASK)|(LINHA2_MASK)|(LINHA3_MASK)); // linhas como entrada
    1876:	e1 e0       	ldi	r30, 0x01	; 1
    1878:	f1 e0       	ldi	r31, 0x01	; 1
    187a:	80 81       	ld	r24, Z
    187c:	87 78       	andi	r24, 0x87	; 135
    187e:	80 83       	st	Z, r24
	LINHA_PORT |= (LINHA0_MASK)|(LINHA1_MASK)|(LINHA2_MASK)|(LINHA3_MASK); // pullup Linhas
    1880:	e2 e0       	ldi	r30, 0x02	; 2
    1882:	f1 e0       	ldi	r31, 0x01	; 1
    1884:	80 81       	ld	r24, Z
    1886:	88 67       	ori	r24, 0x78	; 120
    1888:	80 83       	st	Z, r24
	
	COLUNA_DDR |=((COLUNA0_MASK)|(COLUNA1_MASK)|(COLUNA2_MASK)|(COLUNA3_MASK));//coluas como saida
    188a:	84 b1       	in	r24, 0x04	; 4
    188c:	8f 60       	ori	r24, 0x0F	; 15
    188e:	84 b9       	out	0x04, r24	; 4
	
	

		coluna=0;
		COlUNA_PORT &=~ COLUNA0_MASK;
    1890:	28 98       	cbi	0x05, 0	; 5
		COlUNA_PORT |= (COLUNA1_MASK|COLUNA2_MASK|COLUNA3_MASK);
    1892:	85 b1       	in	r24, 0x05	; 5
    1894:	8e 60       	ori	r24, 0x0E	; 14
    1896:	85 b9       	out	0x05, r24	; 5
		linha=debounce_linha();
    1898:	8a df       	rcall	.-236    	; 0x17ae <_Z14debounce_linhav>
		
		if(linha!=(char)-1){
    189a:	8f 3f       	cpi	r24, 0xFF	; 255
    189c:	19 f0       	breq	.+6      	; 0x18a4 <_Z10le_tecladov+0x2e>
			leitura = converte_leitura(linha,coluna);
    189e:	60 e0       	ldi	r22, 0x00	; 0
    18a0:	a1 cf       	rjmp	.-190    	; 0x17e4 <_Z16converte_leituracc>
			return leitura;
    18a2:	08 95       	ret
		}
		coluna=1;
		COlUNA_PORT &=~ COLUNA1_MASK;
    18a4:	29 98       	cbi	0x05, 1	; 5
		COlUNA_PORT |= (COLUNA0_MASK|COLUNA2_MASK|COLUNA3_MASK);
    18a6:	85 b1       	in	r24, 0x05	; 5
    18a8:	8d 60       	ori	r24, 0x0D	; 13
		linha=debounce_linha();
    18aa:	85 b9       	out	0x05, r24	; 5
    18ac:	80 df       	rcall	.-256    	; 0x17ae <_Z14debounce_linhav>
		
		if(linha!=(char)-1){
    18ae:	8f 3f       	cpi	r24, 0xFF	; 255
			leitura=converte_leitura(linha,coluna);
    18b0:	19 f0       	breq	.+6      	; 0x18b8 <_Z10le_tecladov+0x42>
    18b2:	61 e0       	ldi	r22, 0x01	; 1
    18b4:	97 cf       	rjmp	.-210    	; 0x17e4 <_Z16converte_leituracc>
			return leitura;
    18b6:	08 95       	ret
		}
		coluna=2;
		COlUNA_PORT &=~ COLUNA2_MASK;
		COlUNA_PORT |= (COLUNA1_MASK|COLUNA0_MASK|COLUNA3_MASK);
    18b8:	2a 98       	cbi	0x05, 2	; 5
    18ba:	85 b1       	in	r24, 0x05	; 5
    18bc:	8b 60       	ori	r24, 0x0B	; 11
		linha=debounce_linha();
    18be:	85 b9       	out	0x05, r24	; 5
		
		if(linha!=(char)-1){
    18c0:	76 df       	rcall	.-276    	; 0x17ae <_Z14debounce_linhav>
    18c2:	8f 3f       	cpi	r24, 0xFF	; 255
			leitura = converte_leitura(linha,coluna);
    18c4:	19 f0       	breq	.+6      	; 0x18cc <_Z10le_tecladov+0x56>
    18c6:	62 e0       	ldi	r22, 0x02	; 2
			return leitura;
    18c8:	8d cf       	rjmp	.-230    	; 0x17e4 <_Z16converte_leituracc>
		}
		coluna=3;
		COlUNA_PORT &=~ COLUNA3_MASK;
    18ca:	08 95       	ret
		COlUNA_PORT |= (COLUNA1_MASK|COLUNA2_MASK|COLUNA0_MASK);
    18cc:	2b 98       	cbi	0x05, 3	; 5
    18ce:	85 b1       	in	r24, 0x05	; 5
		linha = debounce_linha();
    18d0:	87 60       	ori	r24, 0x07	; 7
    18d2:	85 b9       	out	0x05, r24	; 5
		
		if(linha!=(char)-1){
    18d4:	6c df       	rcall	.-296    	; 0x17ae <_Z14debounce_linhav>
    18d6:	8f 3f       	cpi	r24, 0xFF	; 255
			leitura = converte_leitura(linha,coluna);
    18d8:	19 f0       	breq	.+6      	; 0x18e0 <_Z10le_tecladov+0x6a>
    18da:	63 e0       	ldi	r22, 0x03	; 3
    18dc:	83 cf       	rjmp	.-250    	; 0x17e4 <_Z16converte_leituracc>
			return leitura;
    18de:	08 95       	ret
		}
		
		
	return -1;
    18e0:	8f ef       	ldi	r24, 0xFF	; 255
}
    18e2:	08 95       	ret

000018e4 <__divmodhi4>:
    18e4:	97 fb       	bst	r25, 7
    18e6:	07 2e       	mov	r0, r23
    18e8:	16 f4       	brtc	.+4      	; 0x18ee <__divmodhi4+0xa>
    18ea:	00 94       	com	r0
    18ec:	06 d0       	rcall	.+12     	; 0x18fa <__divmodhi4_neg1>
    18ee:	77 fd       	sbrc	r23, 7
    18f0:	08 d0       	rcall	.+16     	; 0x1902 <__divmodhi4_neg2>
    18f2:	13 d0       	rcall	.+38     	; 0x191a <__udivmodhi4>
    18f4:	07 fc       	sbrc	r0, 7
    18f6:	05 d0       	rcall	.+10     	; 0x1902 <__divmodhi4_neg2>
    18f8:	3e f4       	brtc	.+14     	; 0x1908 <__divmodhi4_exit>

000018fa <__divmodhi4_neg1>:
    18fa:	90 95       	com	r25
    18fc:	81 95       	neg	r24
    18fe:	9f 4f       	sbci	r25, 0xFF	; 255
    1900:	08 95       	ret

00001902 <__divmodhi4_neg2>:
    1902:	70 95       	com	r23
    1904:	61 95       	neg	r22
    1906:	7f 4f       	sbci	r23, 0xFF	; 255

00001908 <__divmodhi4_exit>:
    1908:	08 95       	ret

0000190a <__tablejump2__>:
    190a:	ee 0f       	add	r30, r30
    190c:	ff 1f       	adc	r31, r31
    190e:	88 1f       	adc	r24, r24
    1910:	8b bf       	out	0x3b, r24	; 59
    1912:	07 90       	elpm	r0, Z+
    1914:	f6 91       	elpm	r31, Z
    1916:	e0 2d       	mov	r30, r0
    1918:	19 94       	eijmp

0000191a <__udivmodhi4>:
    191a:	aa 1b       	sub	r26, r26
    191c:	bb 1b       	sub	r27, r27
    191e:	51 e1       	ldi	r21, 0x11	; 17
    1920:	07 c0       	rjmp	.+14     	; 0x1930 <__udivmodhi4_ep>

00001922 <__udivmodhi4_loop>:
    1922:	aa 1f       	adc	r26, r26
    1924:	bb 1f       	adc	r27, r27
    1926:	a6 17       	cp	r26, r22
    1928:	b7 07       	cpc	r27, r23
    192a:	10 f0       	brcs	.+4      	; 0x1930 <__udivmodhi4_ep>
    192c:	a6 1b       	sub	r26, r22
    192e:	b7 0b       	sbc	r27, r23

00001930 <__udivmodhi4_ep>:
    1930:	88 1f       	adc	r24, r24
    1932:	99 1f       	adc	r25, r25
    1934:	5a 95       	dec	r21
    1936:	a9 f7       	brne	.-22     	; 0x1922 <__udivmodhi4_loop>
    1938:	80 95       	com	r24
    193a:	90 95       	com	r25
    193c:	bc 01       	movw	r22, r24
    193e:	cd 01       	movw	r24, r26
    1940:	08 95       	ret

00001942 <strcmp>:
    1942:	fb 01       	movw	r30, r22
    1944:	dc 01       	movw	r26, r24
    1946:	8d 91       	ld	r24, X+
    1948:	01 90       	ld	r0, Z+
    194a:	80 19       	sub	r24, r0
    194c:	01 10       	cpse	r0, r1
    194e:	d9 f3       	breq	.-10     	; 0x1946 <strcmp+0x4>
    1950:	99 0b       	sbc	r25, r25
    1952:	08 95       	ret

00001954 <__itoa_ncheck>:
    1954:	bb 27       	eor	r27, r27
    1956:	4a 30       	cpi	r20, 0x0A	; 10
    1958:	31 f4       	brne	.+12     	; 0x1966 <__itoa_ncheck+0x12>
    195a:	99 23       	and	r25, r25
    195c:	22 f4       	brpl	.+8      	; 0x1966 <__itoa_ncheck+0x12>
    195e:	bd e2       	ldi	r27, 0x2D	; 45
    1960:	90 95       	com	r25
    1962:	81 95       	neg	r24
    1964:	9f 4f       	sbci	r25, 0xFF	; 255
    1966:	01 c0       	rjmp	.+2      	; 0x196a <__utoa_common>

00001968 <__utoa_ncheck>:
    1968:	bb 27       	eor	r27, r27

0000196a <__utoa_common>:
    196a:	fb 01       	movw	r30, r22
    196c:	55 27       	eor	r21, r21
    196e:	aa 27       	eor	r26, r26
    1970:	88 0f       	add	r24, r24
    1972:	99 1f       	adc	r25, r25
    1974:	aa 1f       	adc	r26, r26
    1976:	a4 17       	cp	r26, r20
    1978:	10 f0       	brcs	.+4      	; 0x197e <__utoa_common+0x14>
    197a:	a4 1b       	sub	r26, r20
    197c:	83 95       	inc	r24
    197e:	50 51       	subi	r21, 0x10	; 16
    1980:	b9 f7       	brne	.-18     	; 0x1970 <__utoa_common+0x6>
    1982:	a0 5d       	subi	r26, 0xD0	; 208
    1984:	aa 33       	cpi	r26, 0x3A	; 58
    1986:	08 f0       	brcs	.+2      	; 0x198a <__utoa_common+0x20>
    1988:	a9 5d       	subi	r26, 0xD9	; 217
    198a:	a1 93       	st	Z+, r26
    198c:	00 97       	sbiw	r24, 0x00	; 0
    198e:	79 f7       	brne	.-34     	; 0x196e <__utoa_common+0x4>
    1990:	b1 11       	cpse	r27, r1
    1992:	b1 93       	st	Z+, r27
    1994:	11 92       	st	Z+, r1
    1996:	cb 01       	movw	r24, r22
    1998:	00 c0       	rjmp	.+0      	; 0x199a <strrev>

0000199a <strrev>:
    199a:	dc 01       	movw	r26, r24
    199c:	fc 01       	movw	r30, r24
    199e:	67 2f       	mov	r22, r23
    19a0:	71 91       	ld	r23, Z+
    19a2:	77 23       	and	r23, r23
    19a4:	e1 f7       	brne	.-8      	; 0x199e <strrev+0x4>
    19a6:	32 97       	sbiw	r30, 0x02	; 2
    19a8:	04 c0       	rjmp	.+8      	; 0x19b2 <strrev+0x18>
    19aa:	7c 91       	ld	r23, X
    19ac:	6d 93       	st	X+, r22
    19ae:	70 83       	st	Z, r23
    19b0:	62 91       	ld	r22, -Z
    19b2:	ae 17       	cp	r26, r30
    19b4:	bf 07       	cpc	r27, r31
    19b6:	c8 f3       	brcs	.-14     	; 0x19aa <strrev+0x10>
    19b8:	08 95       	ret

000019ba <_exit>:
    19ba:	f8 94       	cli

000019bc <__stop_program>:
    19bc:	ff cf       	rjmp	.-2      	; 0x19bc <__stop_program>
